
labyrinth:     file format elf64-x86-64


Disassembly of section .init:

0000000000001000 <.init>:
    1000:	f3 0f 1e fa          	endbr64
    1004:	48 83 ec 08          	sub    rsp,0x8
    1008:	48 8b 05 d9 4f 00 00 	mov    rax,QWORD PTR [rip+0x4fd9]        # 5fe8 <__cxa_finalize@plt+0x4f38>
    100f:	48 85 c0             	test   rax,rax
    1012:	74 02                	je     1016 <puts@plt-0x1a>
    1014:	ff d0                	call   rax
    1016:	48 83 c4 08          	add    rsp,0x8
    101a:	c3                   	ret

Disassembly of section .plt:

0000000000001020 <puts@plt-0x10>:
    1020:	ff 35 62 4f 00 00    	push   QWORD PTR [rip+0x4f62]        # 5f88 <__cxa_finalize@plt+0x4ed8>
    1026:	ff 25 64 4f 00 00    	jmp    QWORD PTR [rip+0x4f64]        # 5f90 <__cxa_finalize@plt+0x4ee0>
    102c:	0f 1f 40 00          	nop    DWORD PTR [rax+0x0]

0000000000001030 <puts@plt>:
    1030:	ff 25 62 4f 00 00    	jmp    QWORD PTR [rip+0x4f62]        # 5f98 <__cxa_finalize@plt+0x4ee8>
    1036:	68 00 00 00 00       	push   0x0
    103b:	e9 e0 ff ff ff       	jmp    1020 <puts@plt-0x10>

0000000000001040 <fclose@plt>:
    1040:	ff 25 5a 4f 00 00    	jmp    QWORD PTR [rip+0x4f5a]        # 5fa0 <__cxa_finalize@plt+0x4ef0>
    1046:	68 01 00 00 00       	push   0x1
    104b:	e9 d0 ff ff ff       	jmp    1020 <puts@plt-0x10>

0000000000001050 <__stack_chk_fail@plt>:
    1050:	ff 25 52 4f 00 00    	jmp    QWORD PTR [rip+0x4f52]        # 5fa8 <__cxa_finalize@plt+0x4ef8>
    1056:	68 02 00 00 00       	push   0x2
    105b:	e9 c0 ff ff ff       	jmp    1020 <puts@plt-0x10>

0000000000001060 <printf@plt>:
    1060:	ff 25 4a 4f 00 00    	jmp    QWORD PTR [rip+0x4f4a]        # 5fb0 <__cxa_finalize@plt+0x4f00>
    1066:	68 03 00 00 00       	push   0x3
    106b:	e9 b0 ff ff ff       	jmp    1020 <puts@plt-0x10>

0000000000001070 <fgets@plt>:
    1070:	ff 25 42 4f 00 00    	jmp    QWORD PTR [rip+0x4f42]        # 5fb8 <__cxa_finalize@plt+0x4f08>
    1076:	68 04 00 00 00       	push   0x4
    107b:	e9 a0 ff ff ff       	jmp    1020 <puts@plt-0x10>

0000000000001080 <mprotect@plt>:
    1080:	ff 25 3a 4f 00 00    	jmp    QWORD PTR [rip+0x4f3a]        # 5fc0 <__cxa_finalize@plt+0x4f10>
    1086:	68 05 00 00 00       	push   0x5
    108b:	e9 90 ff ff ff       	jmp    1020 <puts@plt-0x10>

0000000000001090 <fopen@plt>:
    1090:	ff 25 32 4f 00 00    	jmp    QWORD PTR [rip+0x4f32]        # 5fc8 <__cxa_finalize@plt+0x4f18>
    1096:	68 06 00 00 00       	push   0x6
    109b:	e9 80 ff ff ff       	jmp    1020 <puts@plt-0x10>

00000000000010a0 <__isoc99_scanf@plt>:
    10a0:	ff 25 2a 4f 00 00    	jmp    QWORD PTR [rip+0x4f2a]        # 5fd0 <__cxa_finalize@plt+0x4f20>
    10a6:	68 07 00 00 00       	push   0x7
    10ab:	e9 70 ff ff ff       	jmp    1020 <puts@plt-0x10>

Disassembly of section .plt.got:

00000000000010b0 <__cxa_finalize@plt>:
    10b0:	ff 25 42 4f 00 00    	jmp    QWORD PTR [rip+0x4f42]        # 5ff8 <__cxa_finalize@plt+0x4f48>
    10b6:	66 90                	xchg   ax,ax

Disassembly of section .text:

00000000000010c0 <.text>:
    10c0:	f3 0f 1e fa          	endbr64
    10c4:	31 ed                	xor    ebp,ebp
    10c6:	49 89 d1             	mov    r9,rdx
    10c9:	5e                   	pop    rsi
    10ca:	48 89 e2             	mov    rdx,rsp
    10cd:	48 83 e4 f0          	and    rsp,0xfffffffffffffff0
    10d1:	50                   	push   rax
    10d2:	54                   	push   rsp
    10d3:	45 31 c0             	xor    r8d,r8d
    10d6:	31 c9                	xor    ecx,ecx
    10d8:	48 8d 3d 17 02 00 00 	lea    rdi,[rip+0x217]        # 12f6 <__cxa_finalize@plt+0x246>
    10df:	ff 15 f3 4e 00 00    	call   QWORD PTR [rip+0x4ef3]        # 5fd8 <__cxa_finalize@plt+0x4f28>
    10e5:	f4                   	hlt
    10e6:	66 2e 0f 1f 84 00 00 	cs nop WORD PTR [rax+rax*1+0x0]
    10ed:	00 00 00 
    10f0:	48 8d 3d 19 4f 00 00 	lea    rdi,[rip+0x4f19]        # 6010 <__cxa_finalize@plt+0x4f60>
    10f7:	48 8d 05 12 4f 00 00 	lea    rax,[rip+0x4f12]        # 6010 <__cxa_finalize@plt+0x4f60>
    10fe:	48 39 f8             	cmp    rax,rdi
    1101:	74 15                	je     1118 <__cxa_finalize@plt+0x68>
    1103:	48 8b 05 d6 4e 00 00 	mov    rax,QWORD PTR [rip+0x4ed6]        # 5fe0 <__cxa_finalize@plt+0x4f30>
    110a:	48 85 c0             	test   rax,rax
    110d:	74 09                	je     1118 <__cxa_finalize@plt+0x68>
    110f:	ff e0                	jmp    rax
    1111:	0f 1f 80 00 00 00 00 	nop    DWORD PTR [rax+0x0]
    1118:	c3                   	ret
    1119:	0f 1f 80 00 00 00 00 	nop    DWORD PTR [rax+0x0]
    1120:	48 8d 3d e9 4e 00 00 	lea    rdi,[rip+0x4ee9]        # 6010 <__cxa_finalize@plt+0x4f60>
    1127:	48 8d 35 e2 4e 00 00 	lea    rsi,[rip+0x4ee2]        # 6010 <__cxa_finalize@plt+0x4f60>
    112e:	48 29 fe             	sub    rsi,rdi
    1131:	48 89 f0             	mov    rax,rsi
    1134:	48 c1 ee 3f          	shr    rsi,0x3f
    1138:	48 c1 f8 03          	sar    rax,0x3
    113c:	48 01 c6             	add    rsi,rax
    113f:	48 d1 fe             	sar    rsi,1
    1142:	74 14                	je     1158 <__cxa_finalize@plt+0xa8>
    1144:	48 8b 05 a5 4e 00 00 	mov    rax,QWORD PTR [rip+0x4ea5]        # 5ff0 <__cxa_finalize@plt+0x4f40>
    114b:	48 85 c0             	test   rax,rax
    114e:	74 08                	je     1158 <__cxa_finalize@plt+0xa8>
    1150:	ff e0                	jmp    rax
    1152:	66 0f 1f 44 00 00    	nop    WORD PTR [rax+rax*1+0x0]
    1158:	c3                   	ret
    1159:	0f 1f 80 00 00 00 00 	nop    DWORD PTR [rax+0x0]
    1160:	f3 0f 1e fa          	endbr64
    1164:	80 3d a5 4e 00 00 00 	cmp    BYTE PTR [rip+0x4ea5],0x0        # 6010 <__cxa_finalize@plt+0x4f60>
    116b:	75 2b                	jne    1198 <__cxa_finalize@plt+0xe8>
    116d:	55                   	push   rbp
    116e:	48 83 3d 82 4e 00 00 	cmp    QWORD PTR [rip+0x4e82],0x0        # 5ff8 <__cxa_finalize@plt+0x4f48>
    1175:	00 
    1176:	48 89 e5             	mov    rbp,rsp
    1179:	74 0c                	je     1187 <__cxa_finalize@plt+0xd7>
    117b:	48 8b 3d 86 4e 00 00 	mov    rdi,QWORD PTR [rip+0x4e86]        # 6008 <__cxa_finalize@plt+0x4f58>
    1182:	e8 29 ff ff ff       	call   10b0 <__cxa_finalize@plt>
    1187:	e8 64 ff ff ff       	call   10f0 <__cxa_finalize@plt+0x40>
    118c:	c6 05 7d 4e 00 00 01 	mov    BYTE PTR [rip+0x4e7d],0x1        # 6010 <__cxa_finalize@plt+0x4f60>
    1193:	5d                   	pop    rbp
    1194:	c3                   	ret
    1195:	0f 1f 00             	nop    DWORD PTR [rax]
    1198:	c3                   	ret
    1199:	0f 1f 80 00 00 00 00 	nop    DWORD PTR [rax+0x0]
    11a0:	f3 0f 1e fa          	endbr64
    11a4:	e9 77 ff ff ff       	jmp    1120 <__cxa_finalize@plt+0x70>
    11a9:	f3 0f 1e fa          	endbr64
    11ad:	55                   	push   rbp
    11ae:	48 89 e5             	mov    rbp,rsp
    11b1:	48 8d 05 59 4e 00 00 	lea    rax,[rip+0x4e59]        # 6011 <__cxa_finalize@plt+0x4f61>
    11b8:	48 89 c6             	mov    rsi,rax
    11bb:	48 8d 05 46 2e 00 00 	lea    rax,[rip+0x2e46]        # 4008 <__cxa_finalize@plt+0x2f58>
    11c2:	48 89 c7             	mov    rdi,rax
    11c5:	b8 00 00 00 00       	mov    eax,0x0
    11ca:	e8 d1 fe ff ff       	call   10a0 <__isoc99_scanf@plt>
    11cf:	0f b6 05 3b 4e 00 00 	movzx  eax,BYTE PTR [rip+0x4e3b]        # 6011 <__cxa_finalize@plt+0x4f61>
    11d6:	3c 4c                	cmp    al,0x4c
    11d8:	74 0b                	je     11e5 <__cxa_finalize@plt+0x135>
    11da:	0f b6 05 30 4e 00 00 	movzx  eax,BYTE PTR [rip+0x4e30]        # 6011 <__cxa_finalize@plt+0x4f61>
    11e1:	3c 6c                	cmp    al,0x6c
    11e3:	75 09                	jne    11ee <__cxa_finalize@plt+0x13e>
    11e5:	c6 05 25 4e 00 00 00 	mov    BYTE PTR [rip+0x4e25],0x0        # 6011 <__cxa_finalize@plt+0x4f61>
    11ec:	eb 64                	jmp    1252 <__cxa_finalize@plt+0x1a2>
    11ee:	0f b6 05 1c 4e 00 00 	movzx  eax,BYTE PTR [rip+0x4e1c]        # 6011 <__cxa_finalize@plt+0x4f61>
    11f5:	3c 44                	cmp    al,0x44
    11f7:	74 0b                	je     1204 <__cxa_finalize@plt+0x154>
    11f9:	0f b6 05 11 4e 00 00 	movzx  eax,BYTE PTR [rip+0x4e11]        # 6011 <__cxa_finalize@plt+0x4f61>
    1200:	3c 64                	cmp    al,0x64
    1202:	75 09                	jne    120d <__cxa_finalize@plt+0x15d>
    1204:	c6 05 06 4e 00 00 01 	mov    BYTE PTR [rip+0x4e06],0x1        # 6011 <__cxa_finalize@plt+0x4f61>
    120b:	eb 45                	jmp    1252 <__cxa_finalize@plt+0x1a2>
    120d:	0f b6 05 fd 4d 00 00 	movzx  eax,BYTE PTR [rip+0x4dfd]        # 6011 <__cxa_finalize@plt+0x4f61>
    1214:	3c 55                	cmp    al,0x55
    1216:	74 0b                	je     1223 <__cxa_finalize@plt+0x173>
    1218:	0f b6 05 f2 4d 00 00 	movzx  eax,BYTE PTR [rip+0x4df2]        # 6011 <__cxa_finalize@plt+0x4f61>
    121f:	3c 75                	cmp    al,0x75
    1221:	75 09                	jne    122c <__cxa_finalize@plt+0x17c>
    1223:	c6 05 e7 4d 00 00 02 	mov    BYTE PTR [rip+0x4de7],0x2        # 6011 <__cxa_finalize@plt+0x4f61>
    122a:	eb 26                	jmp    1252 <__cxa_finalize@plt+0x1a2>
    122c:	0f b6 05 de 4d 00 00 	movzx  eax,BYTE PTR [rip+0x4dde]        # 6011 <__cxa_finalize@plt+0x4f61>
    1233:	3c 52                	cmp    al,0x52
    1235:	74 0b                	je     1242 <__cxa_finalize@plt+0x192>
    1237:	0f b6 05 d3 4d 00 00 	movzx  eax,BYTE PTR [rip+0x4dd3]        # 6011 <__cxa_finalize@plt+0x4f61>
    123e:	3c 72                	cmp    al,0x72
    1240:	75 09                	jne    124b <__cxa_finalize@plt+0x19b>
    1242:	c6 05 c8 4d 00 00 03 	mov    BYTE PTR [rip+0x4dc8],0x3        # 6011 <__cxa_finalize@plt+0x4f61>
    1249:	eb 07                	jmp    1252 <__cxa_finalize@plt+0x1a2>
    124b:	c6 05 bf 4d 00 00 ff 	mov    BYTE PTR [rip+0x4dbf],0xff        # 6011 <__cxa_finalize@plt+0x4f61>
    1252:	5d                   	pop    rbp
    1253:	c3                   	ret
    1254:	f3 0f 1e fa          	endbr64
    1258:	55                   	push   rbp
    1259:	48 89 e5             	mov    rbp,rsp
    125c:	48 83 ec 40          	sub    rsp,0x40
    1260:	64 48 8b 04 25 28 00 	mov    rax,QWORD PTR fs:0x28
    1267:	00 00 
    1269:	48 89 45 f8          	mov    QWORD PTR [rbp-0x8],rax
    126d:	31 c0                	xor    eax,eax
    126f:	48 8d 05 96 2d 00 00 	lea    rax,[rip+0x2d96]        # 400c <__cxa_finalize@plt+0x2f5c>
    1276:	48 89 c6             	mov    rsi,rax
    1279:	48 8d 05 8e 2d 00 00 	lea    rax,[rip+0x2d8e]        # 400e <__cxa_finalize@plt+0x2f5e>
    1280:	48 89 c7             	mov    rdi,rax
    1283:	e8 08 fe ff ff       	call   1090 <fopen@plt>
    1288:	48 89 45 c8          	mov    QWORD PTR [rbp-0x38],rax
    128c:	48 83 7d c8 00       	cmp    QWORD PTR [rbp-0x38],0x0
    1291:	75 11                	jne    12a4 <__cxa_finalize@plt+0x1f4>
    1293:	48 8d 05 86 2d 00 00 	lea    rax,[rip+0x2d86]        # 4020 <__cxa_finalize@plt+0x2f70>
    129a:	48 89 c7             	mov    rdi,rax
    129d:	e8 8e fd ff ff       	call   1030 <puts@plt>
    12a2:	eb 3c                	jmp    12e0 <__cxa_finalize@plt+0x230>
    12a4:	48 8b 55 c8          	mov    rdx,QWORD PTR [rbp-0x38]
    12a8:	48 8d 45 d0          	lea    rax,[rbp-0x30]
    12ac:	be 20 00 00 00       	mov    esi,0x20
    12b1:	48 89 c7             	mov    rdi,rax
    12b4:	e8 b7 fd ff ff       	call   1070 <fgets@plt>
    12b9:	48 8d 45 d0          	lea    rax,[rbp-0x30]
    12bd:	48 89 c6             	mov    rsi,rax
    12c0:	48 8d 05 81 2d 00 00 	lea    rax,[rip+0x2d81]        # 4048 <__cxa_finalize@plt+0x2f98>
    12c7:	48 89 c7             	mov    rdi,rax
    12ca:	b8 00 00 00 00       	mov    eax,0x0
    12cf:	e8 8c fd ff ff       	call   1060 <printf@plt>
    12d4:	48 8b 45 c8          	mov    rax,QWORD PTR [rbp-0x38]
    12d8:	48 89 c7             	mov    rdi,rax
    12db:	e8 60 fd ff ff       	call   1040 <fclose@plt>
    12e0:	48 8b 45 f8          	mov    rax,QWORD PTR [rbp-0x8]
    12e4:	64 48 2b 04 25 28 00 	sub    rax,QWORD PTR fs:0x28
    12eb:	00 00 
    12ed:	74 05                	je     12f4 <__cxa_finalize@plt+0x244>
    12ef:	e8 5c fd ff ff       	call   1050 <__stack_chk_fail@plt>
    12f4:	c9                   	leave
    12f5:	c3                   	ret
    12f6:	f3 0f 1e fa          	endbr64
    12fa:	55                   	push   rbp
    12fb:	48 89 e5             	mov    rbp,rsp
    12fe:	48 83 ec 10          	sub    rsp,0x10
    1302:	48 8d 05 ad 00 00 00 	lea    rax,[rip+0xad]        # 13b6 <__cxa_finalize@plt+0x306>
    1309:	48 89 c2             	mov    rdx,rax
    130c:	48 89 d0             	mov    rax,rdx
    130f:	48 c1 f8 3f          	sar    rax,0x3f
    1313:	48 c1 e8 34          	shr    rax,0x34
    1317:	48 89 c1             	mov    rcx,rax
    131a:	48 8d 04 0a          	lea    rax,[rdx+rcx*1]
    131e:	25 ff 0f 00 00       	and    eax,0xfff
    1323:	48 29 c8             	sub    rax,rcx
    1326:	48 f7 d8             	neg    rax
    1329:	48 89 c2             	mov    rdx,rax
    132c:	48 8d 05 83 00 00 00 	lea    rax,[rip+0x83]        # 13b6 <__cxa_finalize@plt+0x306>
    1333:	48 01 d0             	add    rax,rdx
    1336:	ba 07 00 00 00       	mov    edx,0x7
    133b:	be 00 20 00 00       	mov    esi,0x2000
    1340:	48 89 c7             	mov    rdi,rax
    1343:	e8 38 fd ff ff       	call   1080 <mprotect@plt>
    1348:	89 45 fc             	mov    DWORD PTR [rbp-0x4],eax
    134b:	83 7d fc 00          	cmp    DWORD PTR [rbp-0x4],0x0
    134f:	74 16                	je     1367 <__cxa_finalize@plt+0x2b7>
    1351:	48 8d 05 f3 2c 00 00 	lea    rax,[rip+0x2cf3]        # 404b <__cxa_finalize@plt+0x2f9b>
    1358:	48 89 c7             	mov    rdi,rax
    135b:	e8 d0 fc ff ff       	call   1030 <puts@plt>
    1360:	b8 01 00 00 00       	mov    eax,0x1
    1365:	eb 4d                	jmp    13b4 <__cxa_finalize@plt+0x304>
    1367:	48 8d 05 f2 2c 00 00 	lea    rax,[rip+0x2cf2]        # 4060 <__cxa_finalize@plt+0x2fb0>
    136e:	48 89 c7             	mov    rdi,rax
    1371:	e8 ba fc ff ff       	call   1030 <puts@plt>
    1376:	b8 00 00 00 00       	mov    eax,0x0
    137b:	e8 36 00 00 00       	call   13b6 <__cxa_finalize@plt+0x306>
    1380:	83 f8 01             	cmp    eax,0x1
    1383:	75 1b                	jne    13a0 <__cxa_finalize@plt+0x2f0>
    1385:	48 8d 05 18 2d 00 00 	lea    rax,[rip+0x2d18]        # 40a4 <__cxa_finalize@plt+0x2ff4>
    138c:	48 89 c7             	mov    rdi,rax
    138f:	e8 9c fc ff ff       	call   1030 <puts@plt>
    1394:	b8 00 00 00 00       	mov    eax,0x0
    1399:	e8 b6 fe ff ff       	call   1254 <__cxa_finalize@plt+0x1a4>
    139e:	eb 0f                	jmp    13af <__cxa_finalize@plt+0x2ff>
    13a0:	48 8d 05 06 2d 00 00 	lea    rax,[rip+0x2d06]        # 40ad <__cxa_finalize@plt+0x2ffd>
    13a7:	48 89 c7             	mov    rdi,rax
    13aa:	e8 81 fc ff ff       	call   1030 <puts@plt>
    13af:	b8 00 00 00 00       	mov    eax,0x0
    13b4:	c9                   	leave
    13b5:	c3                   	ret
    13b6:	55                   	push   rbp
    13b7:	48 89 e5             	mov    rbp,rsp
    13ba:	6a 00                	push   0x0
    13bc:	6a 00                	push   0x0
    13be:	4c 8d 2d f1 ff ff ff 	lea    r13,[rip+0xfffffffffffffff1]        # 13b6 <__cxa_finalize@plt+0x306>
    13c5:	e8 df fd ff ff       	call   11a9 <__cxa_finalize@plt+0xf9>
    13ca:	0f b6 05 40 4c 00 00 	movzx  eax,BYTE PTR [rip+0x4c40]        # 6011 <__cxa_finalize@plt+0x4f61>
    13d1:	4d 89 ef             	mov    r15,r13
    13d4:	4c 03 3c 24          	add    r15,QWORD PTR [rsp]
    13d8:	3c 00                	cmp    al,0x0
    13da:	75 11                	jne    13ed <__cxa_finalize@plt+0x33d>
    13dc:	49 81 c7 06 08 00 00 	add    r15,0x806
    13e3:	48 c7 c0 00 00 00 00 	mov    rax,0x0
    13ea:	41 57                	push   r15
    13ec:	c3                   	ret
    13ed:	3c 01                	cmp    al,0x1
    13ef:	75 11                	jne    1402 <__cxa_finalize@plt+0x352>
    13f1:	49 81 c7 80 1c 00 00 	add    r15,0x1c80
    13f8:	48 c7 c0 01 00 00 00 	mov    rax,0x1
    13ff:	41 57                	push   r15
    1401:	c3                   	ret
    1402:	3c 02                	cmp    al,0x2
    1404:	75 11                	jne    1417 <__cxa_finalize@plt+0x367>
    1406:	49 81 c7 80 1c 00 00 	add    r15,0x1c80
    140d:	48 c7 c0 00 00 00 00 	mov    rax,0x0
    1414:	41 57                	push   r15
    1416:	c3                   	ret
    1417:	3c 03                	cmp    al,0x3
    1419:	75 11                	jne    142c <__cxa_finalize@plt+0x37c>
    141b:	49 81 c7 80 1c 00 00 	add    r15,0x1c80
    1422:	48 c7 c0 00 00 00 00 	mov    rax,0x0
    1429:	41 57                	push   r15
    142b:	c3                   	ret
    142c:	e9 05 1c 00 00       	jmp    3036 <__cxa_finalize@plt+0x1f86>
    1431:	e8 73 fd ff ff       	call   11a9 <__cxa_finalize@plt+0xf9>
    1436:	0f b6 05 d4 4b 00 00 	movzx  eax,BYTE PTR [rip+0x4bd4]        # 6011 <__cxa_finalize@plt+0x4f61>
    143d:	4d 89 ef             	mov    r15,r13
    1440:	4c 03 3c 24          	add    r15,QWORD PTR [rsp]
    1444:	3c 00                	cmp    al,0x0
    1446:	75 11                	jne    1459 <__cxa_finalize@plt+0x3a9>
    1448:	49 81 c7 53 01 00 00 	add    r15,0x153
    144f:	48 c7 c0 01 00 00 00 	mov    rax,0x1
    1456:	41 57                	push   r15
    1458:	c3                   	ret
    1459:	3c 01                	cmp    al,0x1
    145b:	75 11                	jne    146e <__cxa_finalize@plt+0x3be>
    145d:	49 81 c7 80 1c 00 00 	add    r15,0x1c80
    1464:	48 c7 c0 00 00 00 00 	mov    rax,0x0
    146b:	41 57                	push   r15
    146d:	c3                   	ret
    146e:	3c 02                	cmp    al,0x2
    1470:	75 11                	jne    1483 <__cxa_finalize@plt+0x3d3>
    1472:	49 81 c7 80 1c 00 00 	add    r15,0x1c80
    1479:	48 c7 c0 00 00 00 00 	mov    rax,0x0
    1480:	41 57                	push   r15
    1482:	c3                   	ret
    1483:	3c 03                	cmp    al,0x3
    1485:	75 11                	jne    1498 <__cxa_finalize@plt+0x3e8>
    1487:	49 81 c7 80 1c 00 00 	add    r15,0x1c80
    148e:	48 c7 c0 00 00 00 00 	mov    rax,0x0
    1495:	41 57                	push   r15
    1497:	c3                   	ret
    1498:	e9 99 1b 00 00       	jmp    3036 <__cxa_finalize@plt+0x1f86>
    149d:	e8 07 fd ff ff       	call   11a9 <__cxa_finalize@plt+0xf9>
    14a2:	0f b6 05 68 4b 00 00 	movzx  eax,BYTE PTR [rip+0x4b68]        # 6011 <__cxa_finalize@plt+0x4f61>
    14a9:	4d 89 ef             	mov    r15,r13
    14ac:	4c 03 3c 24          	add    r15,QWORD PTR [rsp]
    14b0:	3c 00                	cmp    al,0x0
    14b2:	75 11                	jne    14c5 <__cxa_finalize@plt+0x415>
    14b4:	49 81 c7 1f 10 00 00 	add    r15,0x101f
    14bb:	48 c7 c0 00 00 00 00 	mov    rax,0x0
    14c2:	41 57                	push   r15
    14c4:	c3                   	ret
    14c5:	3c 01                	cmp    al,0x1
    14c7:	75 11                	jne    14da <__cxa_finalize@plt+0x42a>
    14c9:	49 81 c7 80 1c 00 00 	add    r15,0x1c80
    14d0:	48 c7 c0 00 00 00 00 	mov    rax,0x0
    14d7:	41 57                	push   r15
    14d9:	c3                   	ret
    14da:	3c 02                	cmp    al,0x2
    14dc:	75 11                	jne    14ef <__cxa_finalize@plt+0x43f>
    14de:	49 81 c7 80 1c 00 00 	add    r15,0x1c80
    14e5:	48 c7 c0 00 00 00 00 	mov    rax,0x0
    14ec:	41 57                	push   r15
    14ee:	c3                   	ret
    14ef:	3c 03                	cmp    al,0x3
    14f1:	75 11                	jne    1504 <__cxa_finalize@plt+0x454>
    14f3:	49 81 c7 80 1c 00 00 	add    r15,0x1c80
    14fa:	48 c7 c0 01 00 00 00 	mov    rax,0x1
    1501:	41 57                	push   r15
    1503:	c3                   	ret
    1504:	e9 2d 1b 00 00       	jmp    3036 <__cxa_finalize@plt+0x1f86>
    1509:	e8 9b fc ff ff       	call   11a9 <__cxa_finalize@plt+0xf9>
    150e:	0f b6 05 fc 4a 00 00 	movzx  eax,BYTE PTR [rip+0x4afc]        # 6011 <__cxa_finalize@plt+0x4f61>
    1515:	4d 89 ef             	mov    r15,r13
    1518:	4c 03 3c 24          	add    r15,QWORD PTR [rsp]
    151c:	3c 00                	cmp    al,0x0
    151e:	75 11                	jne    1531 <__cxa_finalize@plt+0x481>
    1520:	49 81 c7 80 1c 00 00 	add    r15,0x1c80
    1527:	48 c7 c0 01 00 00 00 	mov    rax,0x1
    152e:	41 57                	push   r15
    1530:	c3                   	ret
    1531:	3c 01                	cmp    al,0x1
    1533:	75 11                	jne    1546 <__cxa_finalize@plt+0x496>
    1535:	49 81 c7 db 03 00 00 	add    r15,0x3db
    153c:	48 c7 c0 00 00 00 00 	mov    rax,0x0
    1543:	41 57                	push   r15
    1545:	c3                   	ret
    1546:	3c 02                	cmp    al,0x2
    1548:	75 11                	jne    155b <__cxa_finalize@plt+0x4ab>
    154a:	49 81 c7 80 1c 00 00 	add    r15,0x1c80
    1551:	48 c7 c0 00 00 00 00 	mov    rax,0x0
    1558:	41 57                	push   r15
    155a:	c3                   	ret
    155b:	3c 03                	cmp    al,0x3
    155d:	75 11                	jne    1570 <__cxa_finalize@plt+0x4c0>
    155f:	49 81 c7 80 1c 00 00 	add    r15,0x1c80
    1566:	48 c7 c0 00 00 00 00 	mov    rax,0x0
    156d:	41 57                	push   r15
    156f:	c3                   	ret
    1570:	e9 c1 1a 00 00       	jmp    3036 <__cxa_finalize@plt+0x1f86>
    1575:	e8 2f fc ff ff       	call   11a9 <__cxa_finalize@plt+0xf9>
    157a:	0f b6 05 90 4a 00 00 	movzx  eax,BYTE PTR [rip+0x4a90]        # 6011 <__cxa_finalize@plt+0x4f61>
    1581:	4d 89 ef             	mov    r15,r13
    1584:	4c 03 3c 24          	add    r15,QWORD PTR [rsp]
    1588:	3c 00                	cmp    al,0x0
    158a:	75 11                	jne    159d <__cxa_finalize@plt+0x4ed>
    158c:	49 81 c7 2e 07 00 00 	add    r15,0x72e
    1593:	48 c7 c0 00 00 00 00 	mov    rax,0x0
    159a:	41 57                	push   r15
    159c:	c3                   	ret
    159d:	3c 01                	cmp    al,0x1
    159f:	75 11                	jne    15b2 <__cxa_finalize@plt+0x502>
    15a1:	49 81 c7 2e 07 00 00 	add    r15,0x72e
    15a8:	48 c7 c0 00 00 00 00 	mov    rax,0x0
    15af:	41 57                	push   r15
    15b1:	c3                   	ret
    15b2:	3c 02                	cmp    al,0x2
    15b4:	75 11                	jne    15c7 <__cxa_finalize@plt+0x517>
    15b6:	49 81 c7 2e 07 00 00 	add    r15,0x72e
    15bd:	48 c7 c0 00 00 00 00 	mov    rax,0x0
    15c4:	41 57                	push   r15
    15c6:	c3                   	ret
    15c7:	3c 03                	cmp    al,0x3
    15c9:	75 11                	jne    15dc <__cxa_finalize@plt+0x52c>
    15cb:	49 81 c7 2e 07 00 00 	add    r15,0x72e
    15d2:	48 c7 c0 01 00 00 00 	mov    rax,0x1
    15d9:	41 57                	push   r15
    15db:	c3                   	ret
    15dc:	e9 55 1a 00 00       	jmp    3036 <__cxa_finalize@plt+0x1f86>
    15e1:	e8 c3 fb ff ff       	call   11a9 <__cxa_finalize@plt+0xf9>
    15e6:	0f b6 05 24 4a 00 00 	movzx  eax,BYTE PTR [rip+0x4a24]        # 6011 <__cxa_finalize@plt+0x4f61>
    15ed:	4d 89 ef             	mov    r15,r13
    15f0:	4c 03 3c 24          	add    r15,QWORD PTR [rsp]
    15f4:	3c 00                	cmp    al,0x0
    15f6:	75 11                	jne    1609 <__cxa_finalize@plt+0x559>
    15f8:	49 81 c7 80 1c 00 00 	add    r15,0x1c80
    15ff:	48 c7 c0 00 00 00 00 	mov    rax,0x0
    1606:	41 57                	push   r15
    1608:	c3                   	ret
    1609:	3c 01                	cmp    al,0x1
    160b:	75 11                	jne    161e <__cxa_finalize@plt+0x56e>
    160d:	49 81 c7 9a 07 00 00 	add    r15,0x79a
    1614:	48 c7 c0 00 00 00 00 	mov    rax,0x0
    161b:	41 57                	push   r15
    161d:	c3                   	ret
    161e:	3c 02                	cmp    al,0x2
    1620:	75 11                	jne    1633 <__cxa_finalize@plt+0x583>
    1622:	49 81 c7 06 08 00 00 	add    r15,0x806
    1629:	48 c7 c0 00 00 00 00 	mov    rax,0x0
    1630:	41 57                	push   r15
    1632:	c3                   	ret
    1633:	3c 03                	cmp    al,0x3
    1635:	75 11                	jne    1648 <__cxa_finalize@plt+0x598>
    1637:	49 81 c7 db 0e 00 00 	add    r15,0xedb
    163e:	48 c7 c0 01 00 00 00 	mov    rax,0x1
    1645:	41 57                	push   r15
    1647:	c3                   	ret
    1648:	e9 e9 19 00 00       	jmp    3036 <__cxa_finalize@plt+0x1f86>
    164d:	e8 57 fb ff ff       	call   11a9 <__cxa_finalize@plt+0xf9>
    1652:	0f b6 05 b8 49 00 00 	movzx  eax,BYTE PTR [rip+0x49b8]        # 6011 <__cxa_finalize@plt+0x4f61>
    1659:	4d 89 ef             	mov    r15,r13
    165c:	4c 03 3c 24          	add    r15,QWORD PTR [rsp]
    1660:	3c 00                	cmp    al,0x0
    1662:	75 11                	jne    1675 <__cxa_finalize@plt+0x5c5>
    1664:	49 81 c7 80 1c 00 00 	add    r15,0x1c80
    166b:	48 c7 c0 01 00 00 00 	mov    rax,0x1
    1672:	41 57                	push   r15
    1674:	c3                   	ret
    1675:	3c 01                	cmp    al,0x1
    1677:	75 11                	jne    168a <__cxa_finalize@plt+0x5da>
    1679:	49 81 c7 6f 08 00 00 	add    r15,0x86f
    1680:	48 c7 c0 00 00 00 00 	mov    rax,0x0
    1687:	41 57                	push   r15
    1689:	c3                   	ret
    168a:	3c 02                	cmp    al,0x2
    168c:	75 11                	jne    169f <__cxa_finalize@plt+0x5ef>
    168e:	49 81 c7 80 1c 00 00 	add    r15,0x1c80
    1695:	48 c7 c0 00 00 00 00 	mov    rax,0x0
    169c:	41 57                	push   r15
    169e:	c3                   	ret
    169f:	3c 03                	cmp    al,0x3
    16a1:	75 11                	jne    16b4 <__cxa_finalize@plt+0x604>
    16a3:	49 81 c7 80 1c 00 00 	add    r15,0x1c80
    16aa:	48 c7 c0 00 00 00 00 	mov    rax,0x0
    16b1:	41 57                	push   r15
    16b3:	c3                   	ret
    16b4:	e9 7d 19 00 00       	jmp    3036 <__cxa_finalize@plt+0x1f86>
    16b9:	e8 eb fa ff ff       	call   11a9 <__cxa_finalize@plt+0xf9>
    16be:	0f b6 05 4c 49 00 00 	movzx  eax,BYTE PTR [rip+0x494c]        # 6011 <__cxa_finalize@plt+0x4f61>
    16c5:	4d 89 ef             	mov    r15,r13
    16c8:	4c 03 3c 24          	add    r15,QWORD PTR [rsp]
    16cc:	3c 00                	cmp    al,0x0
    16ce:	75 11                	jne    16e1 <__cxa_finalize@plt+0x631>
    16d0:	49 81 c7 b3 0f 00 00 	add    r15,0xfb3
    16d7:	48 c7 c0 01 00 00 00 	mov    rax,0x1
    16de:	41 57                	push   r15
    16e0:	c3                   	ret
    16e1:	3c 01                	cmp    al,0x1
    16e3:	75 11                	jne    16f6 <__cxa_finalize@plt+0x646>
    16e5:	49 81 c7 4c 15 00 00 	add    r15,0x154c
    16ec:	48 c7 c0 00 00 00 00 	mov    rax,0x0
    16f3:	41 57                	push   r15
    16f5:	c3                   	ret
    16f6:	3c 02                	cmp    al,0x2
    16f8:	75 11                	jne    170b <__cxa_finalize@plt+0x65b>
    16fa:	49 81 c7 80 1c 00 00 	add    r15,0x1c80
    1701:	48 c7 c0 00 00 00 00 	mov    rax,0x0
    1708:	41 57                	push   r15
    170a:	c3                   	ret
    170b:	3c 03                	cmp    al,0x3
    170d:	75 11                	jne    1720 <__cxa_finalize@plt+0x670>
    170f:	49 81 c7 80 1c 00 00 	add    r15,0x1c80
    1716:	48 c7 c0 00 00 00 00 	mov    rax,0x0
    171d:	41 57                	push   r15
    171f:	c3                   	ret
    1720:	e9 11 19 00 00       	jmp    3036 <__cxa_finalize@plt+0x1f86>
    1725:	e8 7f fa ff ff       	call   11a9 <__cxa_finalize@plt+0xf9>
    172a:	0f b6 05 e0 48 00 00 	movzx  eax,BYTE PTR [rip+0x48e0]        # 6011 <__cxa_finalize@plt+0x4f61>
    1731:	4d 89 ef             	mov    r15,r13
    1734:	4c 03 3c 24          	add    r15,QWORD PTR [rsp]
    1738:	3c 00                	cmp    al,0x0
    173a:	75 11                	jne    174d <__cxa_finalize@plt+0x69d>
    173c:	49 81 c7 80 1c 00 00 	add    r15,0x1c80
    1743:	48 c7 c0 00 00 00 00 	mov    rax,0x0
    174a:	41 57                	push   r15
    174c:	c3                   	ret
    174d:	3c 01                	cmp    al,0x1
    174f:	75 11                	jne    1762 <__cxa_finalize@plt+0x6b2>
    1751:	49 81 c7 80 1c 00 00 	add    r15,0x1c80
    1758:	48 c7 c0 00 00 00 00 	mov    rax,0x0
    175f:	41 57                	push   r15
    1761:	c3                   	ret
    1762:	3c 02                	cmp    al,0x2
    1764:	75 11                	jne    1777 <__cxa_finalize@plt+0x6c7>
    1766:	49 81 c7 db 0e 00 00 	add    r15,0xedb
    176d:	48 c7 c0 00 00 00 00 	mov    rax,0x0
    1774:	41 57                	push   r15
    1776:	c3                   	ret
    1777:	3c 03                	cmp    al,0x3
    1779:	75 11                	jne    178c <__cxa_finalize@plt+0x6dc>
    177b:	49 81 c7 80 1c 00 00 	add    r15,0x1c80
    1782:	48 c7 c0 01 00 00 00 	mov    rax,0x1
    1789:	41 57                	push   r15
    178b:	c3                   	ret
    178c:	e9 a5 18 00 00       	jmp    3036 <__cxa_finalize@plt+0x1f86>
    1791:	e8 13 fa ff ff       	call   11a9 <__cxa_finalize@plt+0xf9>
    1796:	0f b6 05 74 48 00 00 	movzx  eax,BYTE PTR [rip+0x4874]        # 6011 <__cxa_finalize@plt+0x4f61>
    179d:	4d 89 ef             	mov    r15,r13
    17a0:	4c 03 3c 24          	add    r15,QWORD PTR [rsp]
    17a4:	3c 00                	cmp    al,0x0
    17a6:	75 11                	jne    17b9 <__cxa_finalize@plt+0x709>
    17a8:	49 81 c7 80 1c 00 00 	add    r15,0x1c80
    17af:	48 c7 c0 01 00 00 00 	mov    rax,0x1
    17b6:	41 57                	push   r15
    17b8:	c3                   	ret
    17b9:	3c 01                	cmp    al,0x1
    17bb:	75 11                	jne    17ce <__cxa_finalize@plt+0x71e>
    17bd:	49 81 c7 b3 0f 00 00 	add    r15,0xfb3
    17c4:	48 c7 c0 00 00 00 00 	mov    rax,0x0
    17cb:	41 57                	push   r15
    17cd:	c3                   	ret
    17ce:	3c 02                	cmp    al,0x2
    17d0:	75 11                	jne    17e3 <__cxa_finalize@plt+0x733>
    17d2:	49 81 c7 53 01 00 00 	add    r15,0x153
    17d9:	48 c7 c0 00 00 00 00 	mov    rax,0x0
    17e0:	41 57                	push   r15
    17e2:	c3                   	ret
    17e3:	3c 03                	cmp    al,0x3
    17e5:	75 11                	jne    17f8 <__cxa_finalize@plt+0x748>
    17e7:	49 81 c7 1f 10 00 00 	add    r15,0x101f
    17ee:	48 c7 c0 00 00 00 00 	mov    rax,0x0
    17f5:	41 57                	push   r15
    17f7:	c3                   	ret
    17f8:	e9 39 18 00 00       	jmp    3036 <__cxa_finalize@plt+0x1f86>
    17fd:	4d 89 ef             	mov    r15,r13
    1800:	49 81 c7 50 16 00 00 	add    r15,0x1650
    1807:	49 83 c7 03          	add    r15,0x3
    180b:	45 8b 37             	mov    r14d,DWORD PTR [r15]
    180e:	41 81 fe bf 01 00 00 	cmp    r14d,0x1bf
    1815:	0f 85 8f 00 00 00    	jne    18aa <__cxa_finalize@plt+0x7fa>
    181b:	4d 89 ef             	mov    r15,r13
    181e:	49 81 c7 41 0b 00 00 	add    r15,0xb41
    1825:	49 83 c7 03          	add    r15,0x3
    1829:	41 be 80 1c 00 00    	mov    r14d,0x1c80
    182f:	45 89 37             	mov    DWORD PTR [r15],r14d
    1832:	4d 89 ef             	mov    r15,r13
    1835:	49 81 c7 9b 03 00 00 	add    r15,0x39b
    183c:	49 83 c7 03          	add    r15,0x3
    1840:	41 be 24 16 00 00    	mov    r14d,0x1624
    1846:	45 89 37             	mov    DWORD PTR [r15],r14d
    1849:	4d 89 ef             	mov    r15,r13
    184c:	49 81 c7 ac 06 00 00 	add    r15,0x6ac
    1853:	49 83 c7 03          	add    r15,0x3
    1857:	41 be 7b 00 00 00    	mov    r14d,0x7b
    185d:	45 89 37             	mov    DWORD PTR [r15],r14d
    1860:	4d 89 ef             	mov    r15,r13
    1863:	49 81 c7 aa 05 00 00 	add    r15,0x5aa
    186a:	49 83 c7 03          	add    r15,0x3
    186e:	41 be 24 16 00 00    	mov    r14d,0x1624
    1874:	45 89 37             	mov    DWORD PTR [r15],r14d
    1877:	4d 89 ef             	mov    r15,r13
    187a:	49 81 c7 50 16 00 00 	add    r15,0x1650
    1881:	49 83 c7 03          	add    r15,0x3
    1885:	41 be 6f 03 00 00    	mov    r14d,0x36f
    188b:	45 89 37             	mov    DWORD PTR [r15],r14d
    188e:	4d 89 ef             	mov    r15,r13
    1891:	49 81 c7 7f 17 00 00 	add    r15,0x177f
    1898:	49 83 c7 03          	add    r15,0x3
    189c:	41 be bc 09 00 00    	mov    r14d,0x9bc
    18a2:	45 89 37             	mov    DWORD PTR [r15],r14d
    18a5:	e9 8a 00 00 00       	jmp    1934 <__cxa_finalize@plt+0x884>
    18aa:	4d 89 ef             	mov    r15,r13
    18ad:	49 81 c7 50 16 00 00 	add    r15,0x1650
    18b4:	49 83 c7 03          	add    r15,0x3
    18b8:	41 be bf 01 00 00    	mov    r14d,0x1bf
    18be:	45 89 37             	mov    DWORD PTR [r15],r14d
    18c1:	4d 89 ef             	mov    r15,r13
    18c4:	49 81 c7 41 0b 00 00 	add    r15,0xb41
    18cb:	49 83 c7 03          	add    r15,0x3
    18cf:	41 be 47 04 00 00    	mov    r14d,0x447
    18d5:	45 89 37             	mov    DWORD PTR [r15],r14d
    18d8:	4d 89 ef             	mov    r15,r13
    18db:	49 81 c7 9b 03 00 00 	add    r15,0x39b
    18e2:	49 83 c7 03          	add    r15,0x3
    18e6:	41 be 80 1c 00 00    	mov    r14d,0x1c80
    18ec:	45 89 37             	mov    DWORD PTR [r15],r14d
    18ef:	4d 89 ef             	mov    r15,r13
    18f2:	49 81 c7 aa 05 00 00 	add    r15,0x5aa
    18f9:	49 83 c7 03          	add    r15,0x3
    18fd:	41 be 80 1c 00 00    	mov    r14d,0x1c80
    1903:	45 89 37             	mov    DWORD PTR [r15],r14d
    1906:	4d 89 ef             	mov    r15,r13
    1909:	49 81 c7 7f 17 00 00 	add    r15,0x177f
    1910:	49 83 c7 03          	add    r15,0x3
    1914:	41 be 80 1c 00 00    	mov    r14d,0x1c80
    191a:	45 89 37             	mov    DWORD PTR [r15],r14d
    191d:	4d 89 ef             	mov    r15,r13
    1920:	49 81 c7 ac 06 00 00 	add    r15,0x6ac
    1927:	49 83 c7 03          	add    r15,0x3
    192b:	41 be bf 01 00 00    	mov    r14d,0x1bf
    1931:	45 89 37             	mov    DWORD PTR [r15],r14d
    1934:	e8 70 f8 ff ff       	call   11a9 <__cxa_finalize@plt+0xf9>
    1939:	0f b6 05 d1 46 00 00 	movzx  eax,BYTE PTR [rip+0x46d1]        # 6011 <__cxa_finalize@plt+0x4f61>
    1940:	4d 89 ef             	mov    r15,r13
    1943:	4c 03 3c 24          	add    r15,QWORD PTR [rsp]
    1947:	3c 00                	cmp    al,0x0
    1949:	75 11                	jne    195c <__cxa_finalize@plt+0x8ac>
    194b:	49 81 c7 80 1c 00 00 	add    r15,0x1c80
    1952:	48 c7 c0 00 00 00 00 	mov    rax,0x0
    1959:	41 57                	push   r15
    195b:	c3                   	ret
    195c:	3c 01                	cmp    al,0x1
    195e:	75 11                	jne    1971 <__cxa_finalize@plt+0x8c1>
    1960:	49 81 c7 80 1c 00 00 	add    r15,0x1c80
    1967:	48 c7 c0 00 00 00 00 	mov    rax,0x0
    196e:	41 57                	push   r15
    1970:	c3                   	ret
    1971:	3c 02                	cmp    al,0x2
    1973:	75 11                	jne    1986 <__cxa_finalize@plt+0x8d6>
    1975:	49 81 c7 80 1c 00 00 	add    r15,0x1c80
    197c:	48 c7 c0 00 00 00 00 	mov    rax,0x0
    1983:	41 57                	push   r15
    1985:	c3                   	ret
    1986:	3c 03                	cmp    al,0x3
    1988:	75 11                	jne    199b <__cxa_finalize@plt+0x8eb>
    198a:	49 81 c7 80 1c 00 00 	add    r15,0x1c80
    1991:	48 c7 c0 01 00 00 00 	mov    rax,0x1
    1998:	41 57                	push   r15
    199a:	c3                   	ret
    199b:	e9 96 16 00 00       	jmp    3036 <__cxa_finalize@plt+0x1f86>
    19a0:	e8 04 f8 ff ff       	call   11a9 <__cxa_finalize@plt+0xf9>
    19a5:	0f b6 05 65 46 00 00 	movzx  eax,BYTE PTR [rip+0x4665]        # 6011 <__cxa_finalize@plt+0x4f61>
    19ac:	4d 89 ef             	mov    r15,r13
    19af:	4c 03 3c 24          	add    r15,QWORD PTR [rsp]
    19b3:	3c 00                	cmp    al,0x0
    19b5:	75 11                	jne    19c8 <__cxa_finalize@plt+0x918>
    19b7:	49 81 c7 80 1c 00 00 	add    r15,0x1c80
    19be:	48 c7 c0 00 00 00 00 	mov    rax,0x0
    19c5:	41 57                	push   r15
    19c7:	c3                   	ret
    19c8:	3c 01                	cmp    al,0x1
    19ca:	75 11                	jne    19dd <__cxa_finalize@plt+0x92d>
    19cc:	49 81 c7 d4 17 00 00 	add    r15,0x17d4
    19d3:	48 c7 c0 00 00 00 00 	mov    rax,0x0
    19da:	41 57                	push   r15
    19dc:	c3                   	ret
    19dd:	3c 02                	cmp    al,0x2
    19df:	75 11                	jne    19f2 <__cxa_finalize@plt+0x942>
    19e1:	49 81 c7 80 1c 00 00 	add    r15,0x1c80
    19e8:	48 c7 c0 00 00 00 00 	mov    rax,0x0
    19ef:	41 57                	push   r15
    19f1:	c3                   	ret
    19f2:	3c 03                	cmp    al,0x3
    19f4:	75 11                	jne    1a07 <__cxa_finalize@plt+0x957>
    19f6:	49 81 c7 06 08 00 00 	add    r15,0x806
    19fd:	48 c7 c0 01 00 00 00 	mov    rax,0x1
    1a04:	41 57                	push   r15
    1a06:	c3                   	ret
    1a07:	e9 2a 16 00 00       	jmp    3036 <__cxa_finalize@plt+0x1f86>
    1a0c:	e8 98 f7 ff ff       	call   11a9 <__cxa_finalize@plt+0xf9>
    1a11:	0f b6 05 f9 45 00 00 	movzx  eax,BYTE PTR [rip+0x45f9]        # 6011 <__cxa_finalize@plt+0x4f61>
    1a18:	4d 89 ef             	mov    r15,r13
    1a1b:	4c 03 3c 24          	add    r15,QWORD PTR [rsp]
    1a1f:	3c 00                	cmp    al,0x0
    1a21:	75 11                	jne    1a34 <__cxa_finalize@plt+0x984>
    1a23:	49 81 c7 00 0b 00 00 	add    r15,0xb00
    1a2a:	48 c7 c0 00 00 00 00 	mov    rax,0x0
    1a31:	41 57                	push   r15
    1a33:	c3                   	ret
    1a34:	3c 01                	cmp    al,0x1
    1a36:	75 11                	jne    1a49 <__cxa_finalize@plt+0x999>
    1a38:	49 81 c7 24 16 00 00 	add    r15,0x1624
    1a3f:	48 c7 c0 00 00 00 00 	mov    rax,0x0
    1a46:	41 57                	push   r15
    1a48:	c3                   	ret
    1a49:	3c 02                	cmp    al,0x2
    1a4b:	75 11                	jne    1a5e <__cxa_finalize@plt+0x9ae>
    1a4d:	49 81 c7 b8 15 00 00 	add    r15,0x15b8
    1a54:	48 c7 c0 01 00 00 00 	mov    rax,0x1
    1a5b:	41 57                	push   r15
    1a5d:	c3                   	ret
    1a5e:	3c 03                	cmp    al,0x3
    1a60:	75 11                	jne    1a73 <__cxa_finalize@plt+0x9c3>
    1a62:	49 81 c7 bf 01 00 00 	add    r15,0x1bf
    1a69:	48 c7 c0 00 00 00 00 	mov    rax,0x0
    1a70:	41 57                	push   r15
    1a72:	c3                   	ret
    1a73:	e9 be 15 00 00       	jmp    3036 <__cxa_finalize@plt+0x1f86>
    1a78:	e8 2c f7 ff ff       	call   11a9 <__cxa_finalize@plt+0xf9>
    1a7d:	0f b6 05 8d 45 00 00 	movzx  eax,BYTE PTR [rip+0x458d]        # 6011 <__cxa_finalize@plt+0x4f61>
    1a84:	4d 89 ef             	mov    r15,r13
    1a87:	4c 03 3c 24          	add    r15,QWORD PTR [rsp]
    1a8b:	3c 00                	cmp    al,0x0
    1a8d:	75 11                	jne    1aa0 <__cxa_finalize@plt+0x9f0>
    1a8f:	49 81 c7 4c 15 00 00 	add    r15,0x154c
    1a96:	48 c7 c0 00 00 00 00 	mov    rax,0x0
    1a9d:	41 57                	push   r15
    1a9f:	c3                   	ret
    1aa0:	3c 01                	cmp    al,0x1
    1aa2:	75 11                	jne    1ab5 <__cxa_finalize@plt+0xa05>
    1aa4:	49 81 c7 80 1c 00 00 	add    r15,0x1c80
    1aab:	48 c7 c0 01 00 00 00 	mov    rax,0x1
    1ab2:	41 57                	push   r15
    1ab4:	c3                   	ret
    1ab5:	3c 02                	cmp    al,0x2
    1ab7:	75 11                	jne    1aca <__cxa_finalize@plt+0xa1a>
    1ab9:	49 81 c7 47 0f 00 00 	add    r15,0xf47
    1ac0:	48 c7 c0 00 00 00 00 	mov    rax,0x0
    1ac7:	41 57                	push   r15
    1ac9:	c3                   	ret
    1aca:	3c 03                	cmp    al,0x3
    1acc:	75 11                	jne    1adf <__cxa_finalize@plt+0xa2f>
    1ace:	49 81 c7 6c 0b 00 00 	add    r15,0xb6c
    1ad5:	48 c7 c0 00 00 00 00 	mov    rax,0x0
    1adc:	41 57                	push   r15
    1ade:	c3                   	ret
    1adf:	e9 52 15 00 00       	jmp    3036 <__cxa_finalize@plt+0x1f86>
    1ae4:	e8 c0 f6 ff ff       	call   11a9 <__cxa_finalize@plt+0xf9>
    1ae9:	0f b6 05 21 45 00 00 	movzx  eax,BYTE PTR [rip+0x4521]        # 6011 <__cxa_finalize@plt+0x4f61>
    1af0:	4d 89 ef             	mov    r15,r13
    1af3:	4c 03 3c 24          	add    r15,QWORD PTR [rsp]
    1af7:	3c 00                	cmp    al,0x0
    1af9:	75 11                	jne    1b0c <__cxa_finalize@plt+0xa5c>
    1afb:	49 81 c7 bf 01 00 00 	add    r15,0x1bf
    1b02:	48 c7 c0 00 00 00 00 	mov    rax,0x0
    1b09:	41 57                	push   r15
    1b0b:	c3                   	ret
    1b0c:	3c 01                	cmp    al,0x1
    1b0e:	75 11                	jne    1b21 <__cxa_finalize@plt+0xa71>
    1b10:	49 81 c7 bf 01 00 00 	add    r15,0x1bf
    1b17:	48 c7 c0 01 00 00 00 	mov    rax,0x1
    1b1e:	41 57                	push   r15
    1b20:	c3                   	ret
    1b21:	3c 02                	cmp    al,0x2
    1b23:	75 11                	jne    1b36 <__cxa_finalize@plt+0xa86>
    1b25:	49 81 c7 bf 01 00 00 	add    r15,0x1bf
    1b2c:	48 c7 c0 00 00 00 00 	mov    rax,0x0
    1b33:	41 57                	push   r15
    1b35:	c3                   	ret
    1b36:	3c 03                	cmp    al,0x3
    1b38:	75 11                	jne    1b4b <__cxa_finalize@plt+0xa9b>
    1b3a:	49 81 c7 bf 01 00 00 	add    r15,0x1bf
    1b41:	48 c7 c0 00 00 00 00 	mov    rax,0x0
    1b48:	41 57                	push   r15
    1b4a:	c3                   	ret
    1b4b:	e9 e6 14 00 00       	jmp    3036 <__cxa_finalize@plt+0x1f86>
    1b50:	e8 54 f6 ff ff       	call   11a9 <__cxa_finalize@plt+0xf9>
    1b55:	0f b6 05 b5 44 00 00 	movzx  eax,BYTE PTR [rip+0x44b5]        # 6011 <__cxa_finalize@plt+0x4f61>
    1b5c:	4d 89 ef             	mov    r15,r13
    1b5f:	4c 03 3c 24          	add    r15,QWORD PTR [rsp]
    1b63:	3c 00                	cmp    al,0x0
    1b65:	75 11                	jne    1b78 <__cxa_finalize@plt+0xac8>
    1b67:	49 81 c7 db 08 00 00 	add    r15,0x8db
    1b6e:	48 c7 c0 00 00 00 00 	mov    rax,0x0
    1b75:	41 57                	push   r15
    1b77:	c3                   	ret
    1b78:	3c 01                	cmp    al,0x1
    1b7a:	75 11                	jne    1b8d <__cxa_finalize@plt+0xadd>
    1b7c:	49 81 c7 80 1c 00 00 	add    r15,0x1c80
    1b83:	48 c7 c0 01 00 00 00 	mov    rax,0x1
    1b8a:	41 57                	push   r15
    1b8c:	c3                   	ret
    1b8d:	3c 02                	cmp    al,0x2
    1b8f:	75 11                	jne    1ba2 <__cxa_finalize@plt+0xaf2>
    1b91:	49 81 c7 2b 02 00 00 	add    r15,0x22b
    1b98:	48 c7 c0 00 00 00 00 	mov    rax,0x0
    1b9f:	41 57                	push   r15
    1ba1:	c3                   	ret
    1ba2:	3c 03                	cmp    al,0x3
    1ba4:	75 11                	jne    1bb7 <__cxa_finalize@plt+0xb07>
    1ba6:	49 81 c7 80 1c 00 00 	add    r15,0x1c80
    1bad:	48 c7 c0 00 00 00 00 	mov    rax,0x0
    1bb4:	41 57                	push   r15
    1bb6:	c3                   	ret
    1bb7:	e9 7a 14 00 00       	jmp    3036 <__cxa_finalize@plt+0x1f86>
    1bbc:	e8 e8 f5 ff ff       	call   11a9 <__cxa_finalize@plt+0xf9>
    1bc1:	0f b6 05 49 44 00 00 	movzx  eax,BYTE PTR [rip+0x4449]        # 6011 <__cxa_finalize@plt+0x4f61>
    1bc8:	4d 89 ef             	mov    r15,r13
    1bcb:	4c 03 3c 24          	add    r15,QWORD PTR [rsp]
    1bcf:	3c 00                	cmp    al,0x0
    1bd1:	75 11                	jne    1be4 <__cxa_finalize@plt+0xb34>
    1bd3:	49 81 c7 ea 05 00 00 	add    r15,0x5ea
    1bda:	48 c7 c0 00 00 00 00 	mov    rax,0x0
    1be1:	41 57                	push   r15
    1be3:	c3                   	ret
    1be4:	3c 01                	cmp    al,0x1
    1be6:	75 11                	jne    1bf9 <__cxa_finalize@plt+0xb49>
    1be8:	49 81 c7 2b 02 00 00 	add    r15,0x22b
    1bef:	48 c7 c0 00 00 00 00 	mov    rax,0x0
    1bf6:	41 57                	push   r15
    1bf8:	c3                   	ret
    1bf9:	3c 02                	cmp    al,0x2
    1bfb:	75 11                	jne    1c0e <__cxa_finalize@plt+0xb5e>
    1bfd:	49 81 c7 80 1c 00 00 	add    r15,0x1c80
    1c04:	48 c7 c0 01 00 00 00 	mov    rax,0x1
    1c0b:	41 57                	push   r15
    1c0d:	c3                   	ret
    1c0e:	3c 03                	cmp    al,0x3
    1c10:	75 0e                	jne    1c20 <__cxa_finalize@plt+0xb70>
    1c12:	49 83 c7 0f          	add    r15,0xf
    1c16:	48 c7 c0 00 00 00 00 	mov    rax,0x0
    1c1d:	41 57                	push   r15
    1c1f:	c3                   	ret
    1c20:	e9 11 14 00 00       	jmp    3036 <__cxa_finalize@plt+0x1f86>
    1c25:	e8 7f f5 ff ff       	call   11a9 <__cxa_finalize@plt+0xf9>
    1c2a:	0f b6 05 e0 43 00 00 	movzx  eax,BYTE PTR [rip+0x43e0]        # 6011 <__cxa_finalize@plt+0x4f61>
    1c31:	4d 89 ef             	mov    r15,r13
    1c34:	4c 03 3c 24          	add    r15,QWORD PTR [rsp]
    1c38:	3c 00                	cmp    al,0x0
    1c3a:	75 11                	jne    1c4d <__cxa_finalize@plt+0xb9d>
    1c3c:	49 81 c7 47 0f 00 00 	add    r15,0xf47
    1c43:	48 c7 c0 00 00 00 00 	mov    rax,0x0
    1c4a:	41 57                	push   r15
    1c4c:	c3                   	ret
    1c4d:	3c 01                	cmp    al,0x1
    1c4f:	75 11                	jne    1c62 <__cxa_finalize@plt+0xbb2>
    1c51:	49 81 c7 6c 0b 00 00 	add    r15,0xb6c
    1c58:	48 c7 c0 01 00 00 00 	mov    rax,0x1
    1c5f:	41 57                	push   r15
    1c61:	c3                   	ret
    1c62:	3c 02                	cmp    al,0x2
    1c64:	75 11                	jne    1c77 <__cxa_finalize@plt+0xbc7>
    1c66:	49 81 c7 97 02 00 00 	add    r15,0x297
    1c6d:	48 c7 c0 00 00 00 00 	mov    rax,0x0
    1c74:	41 57                	push   r15
    1c76:	c3                   	ret
    1c77:	3c 03                	cmp    al,0x3
    1c79:	75 11                	jne    1c8c <__cxa_finalize@plt+0xbdc>
    1c7b:	49 81 c7 80 1c 00 00 	add    r15,0x1c80
    1c82:	48 c7 c0 00 00 00 00 	mov    rax,0x0
    1c89:	41 57                	push   r15
    1c8b:	c3                   	ret
    1c8c:	e9 a5 13 00 00       	jmp    3036 <__cxa_finalize@plt+0x1f86>
    1c91:	e8 13 f5 ff ff       	call   11a9 <__cxa_finalize@plt+0xf9>
    1c96:	0f b6 05 74 43 00 00 	movzx  eax,BYTE PTR [rip+0x4374]        # 6011 <__cxa_finalize@plt+0x4f61>
    1c9d:	4d 89 ef             	mov    r15,r13
    1ca0:	4c 03 3c 24          	add    r15,QWORD PTR [rsp]
    1ca4:	3c 00                	cmp    al,0x0
    1ca6:	75 11                	jne    1cb9 <__cxa_finalize@plt+0xc09>
    1ca8:	49 81 c7 80 1c 00 00 	add    r15,0x1c80
    1caf:	48 c7 c0 00 00 00 00 	mov    rax,0x0
    1cb6:	41 57                	push   r15
    1cb8:	c3                   	ret
    1cb9:	3c 01                	cmp    al,0x1
    1cbb:	75 11                	jne    1cce <__cxa_finalize@plt+0xc1e>
    1cbd:	49 81 c7 80 1c 00 00 	add    r15,0x1c80
    1cc4:	48 c7 c0 00 00 00 00 	mov    rax,0x0
    1ccb:	41 57                	push   r15
    1ccd:	c3                   	ret
    1cce:	3c 02                	cmp    al,0x2
    1cd0:	75 11                	jne    1ce3 <__cxa_finalize@plt+0xc33>
    1cd2:	49 81 c7 80 1c 00 00 	add    r15,0x1c80
    1cd9:	48 c7 c0 01 00 00 00 	mov    rax,0x1
    1ce0:	41 57                	push   r15
    1ce2:	c3                   	ret
    1ce3:	3c 03                	cmp    al,0x3
    1ce5:	75 11                	jne    1cf8 <__cxa_finalize@plt+0xc48>
    1ce7:	49 81 c7 9a 07 00 00 	add    r15,0x79a
    1cee:	48 c7 c0 00 00 00 00 	mov    rax,0x0
    1cf5:	41 57                	push   r15
    1cf7:	c3                   	ret
    1cf8:	e9 39 13 00 00       	jmp    3036 <__cxa_finalize@plt+0x1f86>
    1cfd:	e8 a7 f4 ff ff       	call   11a9 <__cxa_finalize@plt+0xf9>
    1d02:	0f b6 05 08 43 00 00 	movzx  eax,BYTE PTR [rip+0x4308]        # 6011 <__cxa_finalize@plt+0x4f61>
    1d09:	4d 89 ef             	mov    r15,r13
    1d0c:	4c 03 3c 24          	add    r15,QWORD PTR [rsp]
    1d10:	3c 00                	cmp    al,0x0
    1d12:	75 11                	jne    1d25 <__cxa_finalize@plt+0xc75>
    1d14:	49 81 c7 80 1c 00 00 	add    r15,0x1c80
    1d1b:	48 c7 c0 00 00 00 00 	mov    rax,0x0
    1d22:	41 57                	push   r15
    1d24:	c3                   	ret
    1d25:	3c 01                	cmp    al,0x1
    1d27:	75 1a                	jne    1d43 <__cxa_finalize@plt+0xc93>
    1d29:	49 81 c7 80 1c 00 00 	add    r15,0x1c80
    1d30:	48 c7 c0 01 00 00 00 	mov    rax,0x1
    1d37:	48 c7 44 24 08 01 00 	mov    QWORD PTR [rsp+0x8],0x1
    1d3e:	00 00 
    1d40:	41 57                	push   r15
    1d42:	c3                   	ret
    1d43:	3c 02                	cmp    al,0x2
    1d45:	75 11                	jne    1d58 <__cxa_finalize@plt+0xca8>
    1d47:	49 81 c7 80 1c 00 00 	add    r15,0x1c80
    1d4e:	48 c7 c0 00 00 00 00 	mov    rax,0x0
    1d55:	41 57                	push   r15
    1d57:	c3                   	ret
    1d58:	3c 03                	cmp    al,0x3
    1d5a:	75 11                	jne    1d6d <__cxa_finalize@plt+0xcbd>
    1d5c:	49 81 c7 80 1c 00 00 	add    r15,0x1c80
    1d63:	48 c7 c0 00 00 00 00 	mov    rax,0x0
    1d6a:	41 57                	push   r15
    1d6c:	c3                   	ret
    1d6d:	e9 c4 12 00 00       	jmp    3036 <__cxa_finalize@plt+0x1f86>
    1d72:	e8 32 f4 ff ff       	call   11a9 <__cxa_finalize@plt+0xf9>
    1d77:	0f b6 05 93 42 00 00 	movzx  eax,BYTE PTR [rip+0x4293]        # 6011 <__cxa_finalize@plt+0x4f61>
    1d7e:	4d 89 ef             	mov    r15,r13
    1d81:	4c 03 3c 24          	add    r15,QWORD PTR [rsp]
    1d85:	3c 00                	cmp    al,0x0
    1d87:	75 11                	jne    1d9a <__cxa_finalize@plt+0xcea>
    1d89:	49 81 c7 80 1c 00 00 	add    r15,0x1c80
    1d90:	48 c7 c0 00 00 00 00 	mov    rax,0x0
    1d97:	41 57                	push   r15
    1d99:	c3                   	ret
    1d9a:	3c 01                	cmp    al,0x1
    1d9c:	75 11                	jne    1daf <__cxa_finalize@plt+0xcff>
    1d9e:	49 81 c7 80 1c 00 00 	add    r15,0x1c80
    1da5:	48 c7 c0 00 00 00 00 	mov    rax,0x0
    1dac:	41 57                	push   r15
    1dae:	c3                   	ret
    1daf:	3c 02                	cmp    al,0x2
    1db1:	75 11                	jne    1dc4 <__cxa_finalize@plt+0xd14>
    1db3:	49 81 c7 80 1c 00 00 	add    r15,0x1c80
    1dba:	48 c7 c0 00 00 00 00 	mov    rax,0x0
    1dc1:	41 57                	push   r15
    1dc3:	c3                   	ret
    1dc4:	3c 03                	cmp    al,0x3
    1dc6:	75 11                	jne    1dd9 <__cxa_finalize@plt+0xd29>
    1dc8:	49 81 c7 80 1c 00 00 	add    r15,0x1c80
    1dcf:	48 c7 c0 01 00 00 00 	mov    rax,0x1
    1dd6:	41 57                	push   r15
    1dd8:	c3                   	ret
    1dd9:	e9 58 12 00 00       	jmp    3036 <__cxa_finalize@plt+0x1f86>
    1dde:	e8 c6 f3 ff ff       	call   11a9 <__cxa_finalize@plt+0xf9>
    1de3:	0f b6 05 27 42 00 00 	movzx  eax,BYTE PTR [rip+0x4227]        # 6011 <__cxa_finalize@plt+0x4f61>
    1dea:	4d 89 ef             	mov    r15,r13
    1ded:	4c 03 3c 24          	add    r15,QWORD PTR [rsp]
    1df1:	3c 00                	cmp    al,0x0
    1df3:	75 11                	jne    1e06 <__cxa_finalize@plt+0xd56>
    1df5:	49 81 c7 80 1c 00 00 	add    r15,0x1c80
    1dfc:	48 c7 c0 00 00 00 00 	mov    rax,0x0
    1e03:	41 57                	push   r15
    1e05:	c3                   	ret
    1e06:	3c 01                	cmp    al,0x1
    1e08:	75 11                	jne    1e1b <__cxa_finalize@plt+0xd6b>
    1e0a:	49 81 c7 80 1c 00 00 	add    r15,0x1c80
    1e11:	48 c7 c0 01 00 00 00 	mov    rax,0x1
    1e18:	41 57                	push   r15
    1e1a:	c3                   	ret
    1e1b:	3c 02                	cmp    al,0x2
    1e1d:	75 11                	jne    1e30 <__cxa_finalize@plt+0xd80>
    1e1f:	49 81 c7 80 1c 00 00 	add    r15,0x1c80
    1e26:	48 c7 c0 00 00 00 00 	mov    rax,0x0
    1e2d:	41 57                	push   r15
    1e2f:	c3                   	ret
    1e30:	3c 03                	cmp    al,0x3
    1e32:	75 11                	jne    1e45 <__cxa_finalize@plt+0xd95>
    1e34:	49 81 c7 80 1c 00 00 	add    r15,0x1c80
    1e3b:	48 c7 c0 00 00 00 00 	mov    rax,0x0
    1e42:	41 57                	push   r15
    1e44:	c3                   	ret
    1e45:	e9 ec 11 00 00       	jmp    3036 <__cxa_finalize@plt+0x1f86>
    1e4a:	e8 5a f3 ff ff       	call   11a9 <__cxa_finalize@plt+0xf9>
    1e4f:	0f b6 05 bb 41 00 00 	movzx  eax,BYTE PTR [rip+0x41bb]        # 6011 <__cxa_finalize@plt+0x4f61>
    1e56:	4d 89 ef             	mov    r15,r13
    1e59:	4c 03 3c 24          	add    r15,QWORD PTR [rsp]
    1e5d:	3c 00                	cmp    al,0x0
    1e5f:	75 11                	jne    1e72 <__cxa_finalize@plt+0xdc2>
    1e61:	49 81 c7 80 1c 00 00 	add    r15,0x1c80
    1e68:	48 c7 c0 00 00 00 00 	mov    rax,0x0
    1e6f:	41 57                	push   r15
    1e71:	c3                   	ret
    1e72:	3c 01                	cmp    al,0x1
    1e74:	75 11                	jne    1e87 <__cxa_finalize@plt+0xdd7>
    1e76:	49 81 c7 80 1c 00 00 	add    r15,0x1c80
    1e7d:	48 c7 c0 01 00 00 00 	mov    rax,0x1
    1e84:	41 57                	push   r15
    1e86:	c3                   	ret
    1e87:	3c 02                	cmp    al,0x2
    1e89:	75 11                	jne    1e9c <__cxa_finalize@plt+0xdec>
    1e8b:	49 81 c7 80 1c 00 00 	add    r15,0x1c80
    1e92:	48 c7 c0 00 00 00 00 	mov    rax,0x0
    1e99:	41 57                	push   r15
    1e9b:	c3                   	ret
    1e9c:	3c 03                	cmp    al,0x3
    1e9e:	75 11                	jne    1eb1 <__cxa_finalize@plt+0xe01>
    1ea0:	49 81 c7 80 1c 00 00 	add    r15,0x1c80
    1ea7:	48 c7 c0 00 00 00 00 	mov    rax,0x0
    1eae:	41 57                	push   r15
    1eb0:	c3                   	ret
    1eb1:	e9 80 11 00 00       	jmp    3036 <__cxa_finalize@plt+0x1f86>
    1eb6:	e8 ee f2 ff ff       	call   11a9 <__cxa_finalize@plt+0xf9>
    1ebb:	0f b6 05 4f 41 00 00 	movzx  eax,BYTE PTR [rip+0x414f]        # 6011 <__cxa_finalize@plt+0x4f61>
    1ec2:	4d 89 ef             	mov    r15,r13
    1ec5:	4c 03 3c 24          	add    r15,QWORD PTR [rsp]
    1ec9:	3c 00                	cmp    al,0x0
    1ecb:	75 11                	jne    1ede <__cxa_finalize@plt+0xe2e>
    1ecd:	49 81 c7 56 06 00 00 	add    r15,0x656
    1ed4:	48 c7 c0 00 00 00 00 	mov    rax,0x0
    1edb:	41 57                	push   r15
    1edd:	c3                   	ret
    1ede:	3c 01                	cmp    al,0x1
    1ee0:	75 11                	jne    1ef3 <__cxa_finalize@plt+0xe43>
    1ee2:	49 81 c7 24 16 00 00 	add    r15,0x1624
    1ee9:	48 c7 c0 00 00 00 00 	mov    rax,0x0
    1ef0:	41 57                	push   r15
    1ef2:	c3                   	ret
    1ef3:	3c 02                	cmp    al,0x2
    1ef5:	75 11                	jne    1f08 <__cxa_finalize@plt+0xe58>
    1ef7:	49 81 c7 47 04 00 00 	add    r15,0x447
    1efe:	48 c7 c0 00 00 00 00 	mov    rax,0x0
    1f05:	41 57                	push   r15
    1f07:	c3                   	ret
    1f08:	3c 03                	cmp    al,0x3
    1f0a:	75 11                	jne    1f1d <__cxa_finalize@plt+0xe6d>
    1f0c:	49 81 c7 b8 15 00 00 	add    r15,0x15b8
    1f13:	48 c7 c0 01 00 00 00 	mov    rax,0x1
    1f1a:	41 57                	push   r15
    1f1c:	c3                   	ret
    1f1d:	e9 14 11 00 00       	jmp    3036 <__cxa_finalize@plt+0x1f86>
    1f22:	4d 89 ef             	mov    r15,r13
    1f25:	49 81 c7 ed 02 00 00 	add    r15,0x2ed
    1f2c:	49 83 c7 03          	add    r15,0x3
    1f30:	45 8b 37             	mov    r14d,DWORD PTR [r15]
    1f33:	41 81 fe 80 1c 00 00 	cmp    r14d,0x1c80
    1f3a:	0f 85 75 01 00 00    	jne    20b5 <__cxa_finalize@plt+0x1005>
    1f40:	4d 89 ef             	mov    r15,r13
    1f43:	49 81 c7 ed 02 00 00 	add    r15,0x2ed
    1f4a:	49 83 c7 03          	add    r15,0x3
    1f4e:	41 be 94 0a 00 00    	mov    r14d,0xa94
    1f54:	45 89 37             	mov    DWORD PTR [r15],r14d
    1f57:	4d 89 ef             	mov    r15,r13
    1f5a:	49 81 c7 1c 04 00 00 	add    r15,0x41c
    1f61:	49 83 c7 03          	add    r15,0x3
    1f65:	41 be 80 1c 00 00    	mov    r14d,0x1c80
    1f6b:	45 89 37             	mov    DWORD PTR [r15],r14d
    1f6e:	4d 89 ef             	mov    r15,r13
    1f71:	49 81 c7 18 07 00 00 	add    r15,0x718
    1f78:	49 83 c7 03          	add    r15,0x3
    1f7c:	41 be 80 1c 00 00    	mov    r14d,0x1c80
    1f82:	45 89 37             	mov    DWORD PTR [r15],r14d
    1f85:	4d 89 ef             	mov    r15,r13
    1f88:	49 81 c7 fd 09 00 00 	add    r15,0x9fd
    1f8f:	49 83 c7 03          	add    r15,0x3
    1f93:	41 be 28 0a 00 00    	mov    r14d,0xa28
    1f99:	45 89 37             	mov    DWORD PTR [r15],r14d
    1f9c:	4d 89 ef             	mov    r15,r13
    1f9f:	49 81 c7 d8 02 00 00 	add    r15,0x2d8
    1fa6:	49 83 c7 03          	add    r15,0x3
    1faa:	41 be 42 19 00 00    	mov    r14d,0x1942
    1fb0:	45 89 37             	mov    DWORD PTR [r15],r14d
    1fb3:	4d 89 ef             	mov    r15,r13
    1fb6:	49 81 c7 03 07 00 00 	add    r15,0x703
    1fbd:	49 83 c7 03          	add    r15,0x3
    1fc1:	41 be 80 1c 00 00    	mov    r14d,0x1c80
    1fc7:	45 89 37             	mov    DWORD PTR [r15],r14d
    1fca:	4d 89 ef             	mov    r15,r13
    1fcd:	49 81 c7 28 01 00 00 	add    r15,0x128
    1fd4:	49 83 c7 03          	add    r15,0x3
    1fd8:	41 be e0 14 00 00    	mov    r14d,0x14e0
    1fde:	45 89 37             	mov    DWORD PTR [r15],r14d
    1fe1:	4d 89 ef             	mov    r15,r13
    1fe4:	49 81 c7 8d 15 00 00 	add    r15,0x158d
    1feb:	49 83 c7 03          	add    r15,0x3
    1fef:	41 be 80 1c 00 00    	mov    r14d,0x1c80
    1ff5:	45 89 37             	mov    DWORD PTR [r15],r14d
    1ff8:	4d 89 ef             	mov    r15,r13
    1ffb:	49 81 c7 3d 17 00 00 	add    r15,0x173d
    2002:	49 83 c7 03          	add    r15,0x3
    2006:	41 be 80 1c 00 00    	mov    r14d,0x1c80
    200c:	45 89 37             	mov    DWORD PTR [r15],r14d
    200f:	4d 89 ef             	mov    r15,r13
    2012:	49 81 c7 73 0f 00 00 	add    r15,0xf73
    2019:	49 83 c7 03          	add    r15,0x3
    201d:	41 be 80 1c 00 00    	mov    r14d,0x1c80
    2023:	45 89 37             	mov    DWORD PTR [r15],r14d
    2026:	4d 89 ef             	mov    r15,r13
    2029:	49 81 c7 86 0e 00 00 	add    r15,0xe86
    2030:	49 83 c7 03          	add    r15,0x3
    2034:	41 be 80 1c 00 00    	mov    r14d,0x1c80
    203a:	45 89 37             	mov    DWORD PTR [r15],r14d
    203d:	4d 89 ef             	mov    r15,r13
    2040:	49 81 c7 2f 03 00 00 	add    r15,0x32f
    2047:	49 83 c7 03          	add    r15,0x3
    204b:	41 be 80 1c 00 00    	mov    r14d,0x1c80
    2051:	45 89 37             	mov    DWORD PTR [r15],r14d
    2054:	4d 89 ef             	mov    r15,r13
    2057:	49 81 c7 0c 15 00 00 	add    r15,0x150c
    205e:	49 83 c7 03          	add    r15,0x3
    2062:	41 be e7 00 00 00    	mov    r14d,0xe7
    2068:	45 89 37             	mov    DWORD PTR [r15],r14d
    206b:	4d 89 ef             	mov    r15,r13
    206e:	49 81 c7 43 1c 00 00 	add    r15,0x1c43
    2075:	49 83 c7 03          	add    r15,0x3
    2079:	41 be 97 02 00 00    	mov    r14d,0x297
    207f:	45 89 37             	mov    DWORD PTR [r15],r14d
    2082:	4d 89 ef             	mov    r15,r13
    2085:	49 81 c7 7f 01 00 00 	add    r15,0x17f
    208c:	49 83 c7 03          	add    r15,0x3
    2090:	41 be 80 1c 00 00    	mov    r14d,0x1c80
    2096:	45 89 37             	mov    DWORD PTR [r15],r14d
    2099:	4d 89 ef             	mov    r15,r13
    209c:	49 81 c7 df 0f 00 00 	add    r15,0xfdf
    20a3:	49 83 c7 03          	add    r15,0x3
    20a7:	41 be 80 1c 00 00    	mov    r14d,0x1c80
    20ad:	45 89 37             	mov    DWORD PTR [r15],r14d
    20b0:	e9 70 01 00 00       	jmp    2225 <__cxa_finalize@plt+0x1175>
    20b5:	4d 89 ef             	mov    r15,r13
    20b8:	49 81 c7 ed 02 00 00 	add    r15,0x2ed
    20bf:	49 83 c7 03          	add    r15,0x3
    20c3:	41 be 80 1c 00 00    	mov    r14d,0x1c80
    20c9:	45 89 37             	mov    DWORD PTR [r15],r14d
    20cc:	4d 89 ef             	mov    r15,r13
    20cf:	49 81 c7 1c 04 00 00 	add    r15,0x41c
    20d6:	49 83 c7 03          	add    r15,0x3
    20da:	41 be 53 01 00 00    	mov    r14d,0x153
    20e0:	45 89 37             	mov    DWORD PTR [r15],r14d
    20e3:	4d 89 ef             	mov    r15,r13
    20e6:	49 81 c7 18 07 00 00 	add    r15,0x718
    20ed:	49 83 c7 03          	add    r15,0x3
    20f1:	41 be 6c 0b 00 00    	mov    r14d,0xb6c
    20f7:	45 89 37             	mov    DWORD PTR [r15],r14d
    20fa:	4d 89 ef             	mov    r15,r13
    20fd:	49 81 c7 fd 09 00 00 	add    r15,0x9fd
    2104:	49 83 c7 03          	add    r15,0x3
    2108:	41 be 80 1c 00 00    	mov    r14d,0x1c80
    210e:	45 89 37             	mov    DWORD PTR [r15],r14d
    2111:	4d 89 ef             	mov    r15,r13
    2114:	49 81 c7 d8 02 00 00 	add    r15,0x2d8
    211b:	49 83 c7 03          	add    r15,0x3
    211f:	41 be 80 1c 00 00    	mov    r14d,0x1c80
    2125:	45 89 37             	mov    DWORD PTR [r15],r14d
    2128:	4d 89 ef             	mov    r15,r13
    212b:	49 81 c7 03 07 00 00 	add    r15,0x703
    2132:	49 83 c7 03          	add    r15,0x3
    2136:	41 be 47 0f 00 00    	mov    r14d,0xf47
    213c:	45 89 37             	mov    DWORD PTR [r15],r14d
    213f:	4d 89 ef             	mov    r15,r13
    2142:	49 81 c7 28 01 00 00 	add    r15,0x128
    2149:	49 83 c7 03          	add    r15,0x3
    214d:	41 be 80 1c 00 00    	mov    r14d,0x1c80
    2153:	45 89 37             	mov    DWORD PTR [r15],r14d
    2156:	4d 89 ef             	mov    r15,r13
    2159:	49 81 c7 8d 15 00 00 	add    r15,0x158d
    2160:	49 83 c7 03          	add    r15,0x3
    2164:	41 be 03 03 00 00    	mov    r14d,0x303
    216a:	45 89 37             	mov    DWORD PTR [r15],r14d
    216d:	4d 89 ef             	mov    r15,r13
    2170:	49 81 c7 3d 17 00 00 	add    r15,0x173d
    2177:	49 83 c7 03          	add    r15,0x3
    217b:	41 be b3 0f 00 00    	mov    r14d,0xfb3
    2181:	45 89 37             	mov    DWORD PTR [r15],r14d
    2184:	4d 89 ef             	mov    r15,r13
    2187:	49 81 c7 73 0f 00 00 	add    r15,0xf73
    218e:	49 83 c7 03          	add    r15,0x3
    2192:	41 be c2 06 00 00    	mov    r14d,0x6c2
    2198:	45 89 37             	mov    DWORD PTR [r15],r14d
    219b:	4d 89 ef             	mov    r15,r13
    219e:	49 81 c7 86 0e 00 00 	add    r15,0xe86
    21a5:	49 83 c7 03          	add    r15,0x3
    21a9:	41 be c2 06 00 00    	mov    r14d,0x6c2
    21af:	45 89 37             	mov    DWORD PTR [r15],r14d
    21b2:	4d 89 ef             	mov    r15,r13
    21b5:	49 81 c7 2f 03 00 00 	add    r15,0x32f
    21bc:	49 83 c7 03          	add    r15,0x3
    21c0:	41 be 4c 15 00 00    	mov    r14d,0x154c
    21c6:	45 89 37             	mov    DWORD PTR [r15],r14d
    21c9:	4d 89 ef             	mov    r15,r13
    21cc:	49 81 c7 0c 15 00 00 	add    r15,0x150c
    21d3:	49 83 c7 03          	add    r15,0x3
    21d7:	41 be 80 1c 00 00    	mov    r14d,0x1c80
    21dd:	45 89 37             	mov    DWORD PTR [r15],r14d
    21e0:	4d 89 ef             	mov    r15,r13
    21e3:	49 81 c7 43 1c 00 00 	add    r15,0x1c43
    21ea:	49 83 c7 03          	add    r15,0x3
    21ee:	41 be 80 1c 00 00    	mov    r14d,0x1c80
    21f4:	45 89 37             	mov    DWORD PTR [r15],r14d
    21f7:	4d 89 ef             	mov    r15,r13
    21fa:	49 81 c7 7f 01 00 00 	add    r15,0x17f
    2201:	49 83 c7 03          	add    r15,0x3
    2205:	41 be db 03 00 00    	mov    r14d,0x3db
    220b:	45 89 37             	mov    DWORD PTR [r15],r14d
    220e:	4d 89 ef             	mov    r15,r13
    2211:	49 81 c7 df 0f 00 00 	add    r15,0xfdf
    2218:	49 83 c7 03          	add    r15,0x3
    221c:	41 be fc 16 00 00    	mov    r14d,0x16fc
    2222:	45 89 37             	mov    DWORD PTR [r15],r14d
    2225:	e8 7f ef ff ff       	call   11a9 <__cxa_finalize@plt+0xf9>
    222a:	0f b6 05 e0 3d 00 00 	movzx  eax,BYTE PTR [rip+0x3de0]        # 6011 <__cxa_finalize@plt+0x4f61>
    2231:	4d 89 ef             	mov    r15,r13
    2234:	4c 03 3c 24          	add    r15,QWORD PTR [rsp]
    2238:	3c 00                	cmp    al,0x0
    223a:	75 11                	jne    224d <__cxa_finalize@plt+0x119d>
    223c:	49 81 c7 c2 06 00 00 	add    r15,0x6c2
    2243:	48 c7 c0 00 00 00 00 	mov    rax,0x0
    224a:	41 57                	push   r15
    224c:	c3                   	ret
    224d:	3c 01                	cmp    al,0x1
    224f:	75 11                	jne    2262 <__cxa_finalize@plt+0x11b2>
    2251:	49 81 c7 80 1c 00 00 	add    r15,0x1c80
    2258:	48 c7 c0 01 00 00 00 	mov    rax,0x1
    225f:	41 57                	push   r15
    2261:	c3                   	ret
    2262:	3c 02                	cmp    al,0x2
    2264:	75 11                	jne    2277 <__cxa_finalize@plt+0x11c7>
    2266:	49 81 c7 6f 08 00 00 	add    r15,0x86f
    226d:	48 c7 c0 00 00 00 00 	mov    rax,0x0
    2274:	41 57                	push   r15
    2276:	c3                   	ret
    2277:	3c 03                	cmp    al,0x3
    2279:	75 11                	jne    228c <__cxa_finalize@plt+0x11dc>
    227b:	49 81 c7 80 1c 00 00 	add    r15,0x1c80
    2282:	48 c7 c0 00 00 00 00 	mov    rax,0x0
    2289:	41 57                	push   r15
    228b:	c3                   	ret
    228c:	e9 a5 0d 00 00       	jmp    3036 <__cxa_finalize@plt+0x1f86>
    2291:	e8 13 ef ff ff       	call   11a9 <__cxa_finalize@plt+0xf9>
    2296:	0f b6 05 74 3d 00 00 	movzx  eax,BYTE PTR [rip+0x3d74]        # 6011 <__cxa_finalize@plt+0x4f61>
    229d:	4d 89 ef             	mov    r15,r13
    22a0:	4c 03 3c 24          	add    r15,QWORD PTR [rsp]
    22a4:	3c 00                	cmp    al,0x0
    22a6:	75 11                	jne    22b9 <__cxa_finalize@plt+0x1209>
    22a8:	49 81 c7 2b 02 00 00 	add    r15,0x22b
    22af:	48 c7 c0 00 00 00 00 	mov    rax,0x0
    22b6:	41 57                	push   r15
    22b8:	c3                   	ret
    22b9:	3c 01                	cmp    al,0x1
    22bb:	75 11                	jne    22ce <__cxa_finalize@plt+0x121e>
    22bd:	49 81 c7 6f 03 00 00 	add    r15,0x36f
    22c4:	48 c7 c0 00 00 00 00 	mov    rax,0x0
    22cb:	41 57                	push   r15
    22cd:	c3                   	ret
    22ce:	3c 02                	cmp    al,0x2
    22d0:	75 11                	jne    22e3 <__cxa_finalize@plt+0x1233>
    22d2:	49 81 c7 80 1c 00 00 	add    r15,0x1c80
    22d9:	48 c7 c0 01 00 00 00 	mov    rax,0x1
    22e0:	41 57                	push   r15
    22e2:	c3                   	ret
    22e3:	3c 03                	cmp    al,0x3
    22e5:	75 11                	jne    22f8 <__cxa_finalize@plt+0x1248>
    22e7:	49 81 c7 80 1c 00 00 	add    r15,0x1c80
    22ee:	48 c7 c0 00 00 00 00 	mov    rax,0x0
    22f5:	41 57                	push   r15
    22f7:	c3                   	ret
    22f8:	e9 39 0d 00 00       	jmp    3036 <__cxa_finalize@plt+0x1f86>
    22fd:	e8 a7 ee ff ff       	call   11a9 <__cxa_finalize@plt+0xf9>
    2302:	0f b6 05 08 3d 00 00 	movzx  eax,BYTE PTR [rip+0x3d08]        # 6011 <__cxa_finalize@plt+0x4f61>
    2309:	4d 89 ef             	mov    r15,r13
    230c:	4c 03 3c 24          	add    r15,QWORD PTR [rsp]
    2310:	3c 00                	cmp    al,0x0
    2312:	75 11                	jne    2325 <__cxa_finalize@plt+0x1275>
    2314:	49 81 c7 80 1c 00 00 	add    r15,0x1c80
    231b:	48 c7 c0 00 00 00 00 	mov    rax,0x0
    2322:	41 57                	push   r15
    2324:	c3                   	ret
    2325:	3c 01                	cmp    al,0x1
    2327:	75 11                	jne    233a <__cxa_finalize@plt+0x128a>
    2329:	49 81 c7 c2 06 00 00 	add    r15,0x6c2
    2330:	48 c7 c0 00 00 00 00 	mov    rax,0x0
    2337:	41 57                	push   r15
    2339:	c3                   	ret
    233a:	3c 02                	cmp    al,0x2
    233c:	75 11                	jne    234f <__cxa_finalize@plt+0x129f>
    233e:	49 81 c7 80 1c 00 00 	add    r15,0x1c80
    2345:	48 c7 c0 01 00 00 00 	mov    rax,0x1
    234c:	41 57                	push   r15
    234e:	c3                   	ret
    234f:	3c 03                	cmp    al,0x3
    2351:	75 11                	jne    2364 <__cxa_finalize@plt+0x12b4>
    2353:	49 81 c7 6f 08 00 00 	add    r15,0x86f
    235a:	48 c7 c0 00 00 00 00 	mov    rax,0x0
    2361:	41 57                	push   r15
    2363:	c3                   	ret
    2364:	e9 cd 0c 00 00       	jmp    3036 <__cxa_finalize@plt+0x1f86>
    2369:	e8 3b ee ff ff       	call   11a9 <__cxa_finalize@plt+0xf9>
    236e:	0f b6 05 9c 3c 00 00 	movzx  eax,BYTE PTR [rip+0x3c9c]        # 6011 <__cxa_finalize@plt+0x4f61>
    2375:	4d 89 ef             	mov    r15,r13
    2378:	4c 03 3c 24          	add    r15,QWORD PTR [rsp]
    237c:	3c 00                	cmp    al,0x0
    237e:	75 11                	jne    2391 <__cxa_finalize@plt+0x12e1>
    2380:	49 81 c7 80 1c 00 00 	add    r15,0x1c80
    2387:	48 c7 c0 01 00 00 00 	mov    rax,0x1
    238e:	41 57                	push   r15
    2390:	c3                   	ret
    2391:	3c 01                	cmp    al,0x1
    2393:	75 11                	jne    23a6 <__cxa_finalize@plt+0x12f6>
    2395:	49 81 c7 fc 16 00 00 	add    r15,0x16fc
    239c:	48 c7 c0 00 00 00 00 	mov    rax,0x0
    23a3:	41 57                	push   r15
    23a5:	c3                   	ret
    23a6:	3c 02                	cmp    al,0x2
    23a8:	75 11                	jne    23bb <__cxa_finalize@plt+0x130b>
    23aa:	49 81 c7 db 03 00 00 	add    r15,0x3db
    23b1:	48 c7 c0 00 00 00 00 	mov    rax,0x0
    23b8:	41 57                	push   r15
    23ba:	c3                   	ret
    23bb:	3c 03                	cmp    al,0x3
    23bd:	75 11                	jne    23d0 <__cxa_finalize@plt+0x1320>
    23bf:	49 81 c7 03 03 00 00 	add    r15,0x303
    23c6:	48 c7 c0 00 00 00 00 	mov    rax,0x0
    23cd:	41 57                	push   r15
    23cf:	c3                   	ret
    23d0:	e9 61 0c 00 00       	jmp    3036 <__cxa_finalize@plt+0x1f86>
    23d5:	4d 89 ef             	mov    r15,r13
    23d8:	49 81 c7 f7 14 00 00 	add    r15,0x14f7
    23df:	49 83 c7 03          	add    r15,0x3
    23e3:	45 8b 37             	mov    r14d,DWORD PTR [r15]
    23e6:	41 81 fe 90 16 00 00 	cmp    r14d,0x1690
    23ed:	0f 85 e8 01 00 00    	jne    25db <__cxa_finalize@plt+0x152b>
    23f3:	4d 89 ef             	mov    r15,r13
    23f6:	49 81 c7 f7 14 00 00 	add    r15,0x14f7
    23fd:	49 83 c7 03          	add    r15,0x3
    2401:	41 be 80 1c 00 00    	mov    r14d,0x1c80
    2407:	45 89 37             	mov    DWORD PTR [r15],r14d
    240a:	4d 89 ef             	mov    r15,r13
    240d:	49 81 c7 a7 16 00 00 	add    r15,0x16a7
    2414:	49 83 c7 03          	add    r15,0x3
    2418:	41 be 53 01 00 00    	mov    r14d,0x153
    241e:	45 89 37             	mov    DWORD PTR [r15],r14d
    2421:	4d 89 ef             	mov    r15,r13
    2424:	49 81 c7 f4 0f 00 00 	add    r15,0xff4
    242b:	49 83 c7 03          	add    r15,0x3
    242f:	41 be 80 1c 00 00    	mov    r14d,0x1c80
    2435:	45 89 37             	mov    DWORD PTR [r15],r14d
    2438:	4d 89 ef             	mov    r15,r13
    243b:	49 81 c7 1a 03 00 00 	add    r15,0x31a
    2442:	49 83 c7 03          	add    r15,0x3
    2446:	41 be 80 1c 00 00    	mov    r14d,0x1c80
    244c:	45 89 37             	mov    DWORD PTR [r15],r14d
    244f:	4d 89 ef             	mov    r15,r13
    2452:	49 81 c7 9d 0f 00 00 	add    r15,0xf9d
    2459:	49 83 c7 03          	add    r15,0x3
    245d:	41 be 80 1c 00 00    	mov    r14d,0x1c80
    2463:	45 89 37             	mov    DWORD PTR [r15],r14d
    2466:	4d 89 ef             	mov    r15,r13
    2469:	49 81 c7 e6 16 00 00 	add    r15,0x16e6
    2470:	49 83 c7 03          	add    r15,0x3
    2474:	41 be 80 1c 00 00    	mov    r14d,0x1c80
    247a:	45 89 37             	mov    DWORD PTR [r15],r14d
    247d:	4d 89 ef             	mov    r15,r13
    2480:	49 81 c7 a9 01 00 00 	add    r15,0x1a9
    2487:	49 83 c7 03          	add    r15,0x3
    248b:	41 be 90 16 00 00    	mov    r14d,0x1690
    2491:	45 89 37             	mov    DWORD PTR [r15],r14d
    2494:	4d 89 ef             	mov    r15,r13
    2497:	49 81 c7 09 10 00 00 	add    r15,0x1009
    249e:	49 83 c7 03          	add    r15,0x3
    24a2:	41 be 80 1c 00 00    	mov    r14d,0x1c80
    24a8:	45 89 37             	mov    DWORD PTR [r15],r14d
    24ab:	4d 89 ef             	mov    r15,r13
    24ae:	49 81 c7 86 08 00 00 	add    r15,0x886
    24b5:	49 83 c7 03          	add    r15,0x3
    24b9:	41 be 80 1c 00 00    	mov    r14d,0x1c80
    24bf:	45 89 37             	mov    DWORD PTR [r15],r14d
    24c2:	4d 89 ef             	mov    r15,r13
    24c5:	49 81 c7 34 14 00 00 	add    r15,0x1434
    24cc:	49 83 c7 03          	add    r15,0x3
    24d0:	41 be 03 03 00 00    	mov    r14d,0x303
    24d6:	45 89 37             	mov    DWORD PTR [r15],r14d
    24d9:	4d 89 ef             	mov    r15,r13
    24dc:	49 81 c7 88 0f 00 00 	add    r15,0xf88
    24e3:	49 83 c7 03          	add    r15,0x3
    24e7:	41 be e7 00 00 00    	mov    r14d,0xe7
    24ed:	45 89 37             	mov    DWORD PTR [r15],r14d
    24f0:	4d 89 ef             	mov    r15,r13
    24f3:	49 81 c7 a2 15 00 00 	add    r15,0x15a2
    24fa:	49 83 c7 03          	add    r15,0x3
    24fe:	41 be 80 1c 00 00    	mov    r14d,0x1c80
    2504:	45 89 37             	mov    DWORD PTR [r15],r14d
    2507:	4d 89 ef             	mov    r15,r13
    250a:	49 81 c7 31 04 00 00 	add    r15,0x431
    2511:	49 83 c7 03          	add    r15,0x3
    2515:	41 be 80 1c 00 00    	mov    r14d,0x1c80
    251b:	45 89 37             	mov    DWORD PTR [r15],r14d
    251e:	4d 89 ef             	mov    r15,r13
    2521:	49 81 c7 7e 0a 00 00 	add    r15,0xa7e
    2528:	49 83 c7 03          	add    r15,0x3
    252c:	41 be 47 09 00 00    	mov    r14d,0x947
    2532:	45 89 37             	mov    DWORD PTR [r15],r14d
    2535:	4d 89 ef             	mov    r15,r13
    2538:	49 81 c7 07 04 00 00 	add    r15,0x407
    253f:	49 83 c7 03          	add    r15,0x3
    2543:	41 be 80 1c 00 00    	mov    r14d,0x1c80
    2549:	45 89 37             	mov    DWORD PTR [r15],r14d
    254c:	4d 89 ef             	mov    r15,r13
    254f:	49 81 c7 d9 06 00 00 	add    r15,0x6d9
    2556:	49 83 c7 03          	add    r15,0x3
    255a:	41 be 80 1c 00 00    	mov    r14d,0x1c80
    2560:	45 89 37             	mov    DWORD PTR [r15],r14d
    2563:	4d 89 ef             	mov    r15,r13
    2566:	49 81 c7 44 03 00 00 	add    r15,0x344
    256d:	49 83 c7 03          	add    r15,0x3
    2571:	41 be 1f 10 00 00    	mov    r14d,0x101f
    2577:	45 89 37             	mov    DWORD PTR [r15],r14d
    257a:	4d 89 ef             	mov    r15,r13
    257d:	49 81 c7 2e 1c 00 00 	add    r15,0x1c2e
    2584:	49 83 c7 03          	add    r15,0x3
    2588:	41 be 80 1c 00 00    	mov    r14d,0x1c80
    258e:	45 89 37             	mov    DWORD PTR [r15],r14d
    2591:	4d 89 ef             	mov    r15,r13
    2594:	49 81 c7 13 01 00 00 	add    r15,0x113
    259b:	49 83 c7 03          	add    r15,0x3
    259f:	41 be 47 0f 00 00    	mov    r14d,0xf47
    25a5:	45 89 37             	mov    DWORD PTR [r15],r14d
    25a8:	4d 89 ef             	mov    r15,r13
    25ab:	49 81 c7 1f 14 00 00 	add    r15,0x141f
    25b2:	49 83 c7 03          	add    r15,0x3
    25b6:	41 be 80 1c 00 00    	mov    r14d,0x1c80
    25bc:	45 89 37             	mov    DWORD PTR [r15],r14d
    25bf:	4d 89 ef             	mov    r15,r13
    25c2:	49 81 c7 36 15 00 00 	add    r15,0x1536
    25c9:	49 83 c7 03          	add    r15,0x3
    25cd:	41 be 80 1c 00 00    	mov    r14d,0x1c80
    25d3:	45 89 37             	mov    DWORD PTR [r15],r14d
    25d6:	e9 e3 01 00 00       	jmp    27be <__cxa_finalize@plt+0x170e>
    25db:	4d 89 ef             	mov    r15,r13
    25de:	49 81 c7 f7 14 00 00 	add    r15,0x14f7
    25e5:	49 83 c7 03          	add    r15,0x3
    25e9:	41 be 90 16 00 00    	mov    r14d,0x1690
    25ef:	45 89 37             	mov    DWORD PTR [r15],r14d
    25f2:	4d 89 ef             	mov    r15,r13
    25f5:	49 81 c7 a7 16 00 00 	add    r15,0x16a7
    25fc:	49 83 c7 03          	add    r15,0x3
    2600:	41 be 80 1c 00 00    	mov    r14d,0x1c80
    2606:	45 89 37             	mov    DWORD PTR [r15],r14d
    2609:	4d 89 ef             	mov    r15,r13
    260c:	49 81 c7 f4 0f 00 00 	add    r15,0xff4
    2613:	49 83 c7 03          	add    r15,0x3
    2617:	41 be db 03 00 00    	mov    r14d,0x3db
    261d:	45 89 37             	mov    DWORD PTR [r15],r14d
    2620:	4d 89 ef             	mov    r15,r13
    2623:	49 81 c7 1a 03 00 00 	add    r15,0x31a
    262a:	49 83 c7 03          	add    r15,0x3
    262e:	41 be b3 0f 00 00    	mov    r14d,0xfb3
    2634:	45 89 37             	mov    DWORD PTR [r15],r14d
    2637:	4d 89 ef             	mov    r15,r13
    263a:	49 81 c7 9d 0f 00 00 	add    r15,0xf9d
    2641:	49 83 c7 03          	add    r15,0x3
    2645:	41 be 6f 08 00 00    	mov    r14d,0x86f
    264b:	45 89 37             	mov    DWORD PTR [r15],r14d
    264e:	4d 89 ef             	mov    r15,r13
    2651:	49 81 c7 e6 16 00 00 	add    r15,0x16e6
    2658:	49 83 c7 03          	add    r15,0x3
    265c:	41 be e0 14 00 00    	mov    r14d,0x14e0
    2662:	45 89 37             	mov    DWORD PTR [r15],r14d
    2665:	4d 89 ef             	mov    r15,r13
    2668:	49 81 c7 a9 01 00 00 	add    r15,0x1a9
    266f:	49 83 c7 03          	add    r15,0x3
    2673:	41 be 80 1c 00 00    	mov    r14d,0x1c80
    2679:	45 89 37             	mov    DWORD PTR [r15],r14d
    267c:	4d 89 ef             	mov    r15,r13
    267f:	49 81 c7 09 10 00 00 	add    r15,0x1009
    2686:	49 83 c7 03          	add    r15,0x3
    268a:	41 be 03 03 00 00    	mov    r14d,0x303
    2690:	45 89 37             	mov    DWORD PTR [r15],r14d
    2693:	4d 89 ef             	mov    r15,r13
    2696:	49 81 c7 86 08 00 00 	add    r15,0x886
    269d:	49 83 c7 03          	add    r15,0x3
    26a1:	41 be 47 0f 00 00    	mov    r14d,0xf47
    26a7:	45 89 37             	mov    DWORD PTR [r15],r14d
    26aa:	4d 89 ef             	mov    r15,r13
    26ad:	49 81 c7 34 14 00 00 	add    r15,0x1434
    26b4:	49 83 c7 03          	add    r15,0x3
    26b8:	41 be 80 1c 00 00    	mov    r14d,0x1c80
    26be:	45 89 37             	mov    DWORD PTR [r15],r14d
    26c1:	4d 89 ef             	mov    r15,r13
    26c4:	49 81 c7 88 0f 00 00 	add    r15,0xf88
    26cb:	49 83 c7 03          	add    r15,0x3
    26cf:	41 be 80 1c 00 00    	mov    r14d,0x1c80
    26d5:	45 89 37             	mov    DWORD PTR [r15],r14d
    26d8:	4d 89 ef             	mov    r15,r13
    26db:	49 81 c7 a2 15 00 00 	add    r15,0x15a2
    26e2:	49 83 c7 03          	add    r15,0x3
    26e6:	41 be c2 06 00 00    	mov    r14d,0x6c2
    26ec:	45 89 37             	mov    DWORD PTR [r15],r14d
    26ef:	4d 89 ef             	mov    r15,r13
    26f2:	49 81 c7 31 04 00 00 	add    r15,0x431
    26f9:	49 83 c7 03          	add    r15,0x3
    26fd:	41 be 1f 10 00 00    	mov    r14d,0x101f
    2703:	45 89 37             	mov    DWORD PTR [r15],r14d
    2706:	4d 89 ef             	mov    r15,r13
    2709:	49 81 c7 7e 0a 00 00 	add    r15,0xa7e
    2710:	49 83 c7 03          	add    r15,0x3
    2714:	41 be 80 1c 00 00    	mov    r14d,0x1c80
    271a:	45 89 37             	mov    DWORD PTR [r15],r14d
    271d:	4d 89 ef             	mov    r15,r13
    2720:	49 81 c7 07 04 00 00 	add    r15,0x407
    2727:	49 83 c7 03          	add    r15,0x3
    272b:	41 be b3 0f 00 00    	mov    r14d,0xfb3
    2731:	45 89 37             	mov    DWORD PTR [r15],r14d
    2734:	4d 89 ef             	mov    r15,r13
    2737:	49 81 c7 d9 06 00 00 	add    r15,0x6d9
    273e:	49 83 c7 03          	add    r15,0x3
    2742:	41 be 4c 15 00 00    	mov    r14d,0x154c
    2748:	45 89 37             	mov    DWORD PTR [r15],r14d
    274b:	4d 89 ef             	mov    r15,r13
    274e:	49 81 c7 44 03 00 00 	add    r15,0x344
    2755:	49 83 c7 03          	add    r15,0x3
    2759:	41 be 80 1c 00 00    	mov    r14d,0x1c80
    275f:	45 89 37             	mov    DWORD PTR [r15],r14d
    2762:	4d 89 ef             	mov    r15,r13
    2765:	49 81 c7 2e 1c 00 00 	add    r15,0x1c2e
    276c:	49 83 c7 03          	add    r15,0x3
    2770:	41 be e0 14 00 00    	mov    r14d,0x14e0
    2776:	45 89 37             	mov    DWORD PTR [r15],r14d
    2779:	4d 89 ef             	mov    r15,r13
    277c:	49 81 c7 13 01 00 00 	add    r15,0x113
    2783:	49 83 c7 03          	add    r15,0x3
    2787:	41 be 80 1c 00 00    	mov    r14d,0x1c80
    278d:	45 89 37             	mov    DWORD PTR [r15],r14d
    2790:	4d 89 ef             	mov    r15,r13
    2793:	49 81 c7 1f 14 00 00 	add    r15,0x141f
    279a:	49 83 c7 03          	add    r15,0x3
    279e:	41 be db 03 00 00    	mov    r14d,0x3db
    27a4:	45 89 37             	mov    DWORD PTR [r15],r14d
    27a7:	4d 89 ef             	mov    r15,r13
    27aa:	49 81 c7 36 15 00 00 	add    r15,0x1536
    27b1:	49 83 c7 03          	add    r15,0x3
    27b5:	41 be 42 19 00 00    	mov    r14d,0x1942
    27bb:	45 89 37             	mov    DWORD PTR [r15],r14d
    27be:	e8 e6 e9 ff ff       	call   11a9 <__cxa_finalize@plt+0xf9>
    27c3:	0f b6 05 47 38 00 00 	movzx  eax,BYTE PTR [rip+0x3847]        # 6011 <__cxa_finalize@plt+0x4f61>
    27ca:	4d 89 ef             	mov    r15,r13
    27cd:	4c 03 3c 24          	add    r15,QWORD PTR [rsp]
    27d1:	3c 00                	cmp    al,0x0
    27d3:	75 11                	jne    27e6 <__cxa_finalize@plt+0x1736>
    27d5:	49 81 c7 db 03 00 00 	add    r15,0x3db
    27dc:	48 c7 c0 00 00 00 00 	mov    rax,0x0
    27e3:	41 57                	push   r15
    27e5:	c3                   	ret
    27e6:	3c 01                	cmp    al,0x1
    27e8:	75 11                	jne    27fb <__cxa_finalize@plt+0x174b>
    27ea:	49 81 c7 80 1c 00 00 	add    r15,0x1c80
    27f1:	48 c7 c0 00 00 00 00 	mov    rax,0x0
    27f8:	41 57                	push   r15
    27fa:	c3                   	ret
    27fb:	3c 02                	cmp    al,0x2
    27fd:	75 11                	jne    2810 <__cxa_finalize@plt+0x1760>
    27ff:	49 81 c7 80 1c 00 00 	add    r15,0x1c80
    2806:	48 c7 c0 01 00 00 00 	mov    rax,0x1
    280d:	41 57                	push   r15
    280f:	c3                   	ret
    2810:	3c 03                	cmp    al,0x3
    2812:	75 11                	jne    2825 <__cxa_finalize@plt+0x1775>
    2814:	49 81 c7 e7 00 00 00 	add    r15,0xe7
    281b:	48 c7 c0 00 00 00 00 	mov    rax,0x0
    2822:	41 57                	push   r15
    2824:	c3                   	ret
    2825:	e9 0c 08 00 00       	jmp    3036 <__cxa_finalize@plt+0x1f86>
    282a:	e8 7a e9 ff ff       	call   11a9 <__cxa_finalize@plt+0xf9>
    282f:	0f b6 05 db 37 00 00 	movzx  eax,BYTE PTR [rip+0x37db]        # 6011 <__cxa_finalize@plt+0x4f61>
    2836:	4d 89 ef             	mov    r15,r13
    2839:	4c 03 3c 24          	add    r15,QWORD PTR [rsp]
    283d:	3c 00                	cmp    al,0x0
    283f:	75 11                	jne    2852 <__cxa_finalize@plt+0x17a2>
    2841:	49 81 c7 80 1c 00 00 	add    r15,0x1c80
    2848:	48 c7 c0 00 00 00 00 	mov    rax,0x0
    284f:	41 57                	push   r15
    2851:	c3                   	ret
    2852:	3c 01                	cmp    al,0x1
    2854:	75 11                	jne    2867 <__cxa_finalize@plt+0x17b7>
    2856:	49 81 c7 80 1c 00 00 	add    r15,0x1c80
    285d:	48 c7 c0 00 00 00 00 	mov    rax,0x0
    2864:	41 57                	push   r15
    2866:	c3                   	ret
    2867:	3c 02                	cmp    al,0x2
    2869:	75 11                	jne    287c <__cxa_finalize@plt+0x17cc>
    286b:	49 81 c7 80 1c 00 00 	add    r15,0x1c80
    2872:	48 c7 c0 00 00 00 00 	mov    rax,0x0
    2879:	41 57                	push   r15
    287b:	c3                   	ret
    287c:	3c 03                	cmp    al,0x3
    287e:	75 11                	jne    2891 <__cxa_finalize@plt+0x17e1>
    2880:	49 81 c7 80 1c 00 00 	add    r15,0x1c80
    2887:	48 c7 c0 01 00 00 00 	mov    rax,0x1
    288e:	41 57                	push   r15
    2890:	c3                   	ret
    2891:	e9 a0 07 00 00       	jmp    3036 <__cxa_finalize@plt+0x1f86>
    2896:	e8 0e e9 ff ff       	call   11a9 <__cxa_finalize@plt+0xf9>
    289b:	0f b6 05 6f 37 00 00 	movzx  eax,BYTE PTR [rip+0x376f]        # 6011 <__cxa_finalize@plt+0x4f61>
    28a2:	4d 89 ef             	mov    r15,r13
    28a5:	4c 03 3c 24          	add    r15,QWORD PTR [rsp]
    28a9:	3c 00                	cmp    al,0x0
    28ab:	75 11                	jne    28be <__cxa_finalize@plt+0x180e>
    28ad:	49 81 c7 90 16 00 00 	add    r15,0x1690
    28b4:	48 c7 c0 01 00 00 00 	mov    rax,0x1
    28bb:	41 57                	push   r15
    28bd:	c3                   	ret
    28be:	3c 01                	cmp    al,0x1
    28c0:	75 11                	jne    28d3 <__cxa_finalize@plt+0x1823>
    28c2:	49 81 c7 80 1c 00 00 	add    r15,0x1c80
    28c9:	48 c7 c0 00 00 00 00 	mov    rax,0x0
    28d0:	41 57                	push   r15
    28d2:	c3                   	ret
    28d3:	3c 02                	cmp    al,0x2
    28d5:	75 11                	jne    28e8 <__cxa_finalize@plt+0x1838>
    28d7:	49 81 c7 80 1c 00 00 	add    r15,0x1c80
    28de:	48 c7 c0 00 00 00 00 	mov    rax,0x0
    28e5:	41 57                	push   r15
    28e7:	c3                   	ret
    28e8:	3c 03                	cmp    al,0x3
    28ea:	75 11                	jne    28fd <__cxa_finalize@plt+0x184d>
    28ec:	49 81 c7 42 19 00 00 	add    r15,0x1942
    28f3:	48 c7 c0 00 00 00 00 	mov    rax,0x0
    28fa:	41 57                	push   r15
    28fc:	c3                   	ret
    28fd:	e9 34 07 00 00       	jmp    3036 <__cxa_finalize@plt+0x1f86>
    2902:	e8 a2 e8 ff ff       	call   11a9 <__cxa_finalize@plt+0xf9>
    2907:	0f b6 05 03 37 00 00 	movzx  eax,BYTE PTR [rip+0x3703]        # 6011 <__cxa_finalize@plt+0x4f61>
    290e:	4d 89 ef             	mov    r15,r13
    2911:	4c 03 3c 24          	add    r15,QWORD PTR [rsp]
    2915:	3c 00                	cmp    al,0x0
    2917:	75 11                	jne    292a <__cxa_finalize@plt+0x187a>
    2919:	49 81 c7 80 1c 00 00 	add    r15,0x1c80
    2920:	48 c7 c0 00 00 00 00 	mov    rax,0x0
    2927:	41 57                	push   r15
    2929:	c3                   	ret
    292a:	3c 01                	cmp    al,0x1
    292c:	75 11                	jne    293f <__cxa_finalize@plt+0x188f>
    292e:	49 81 c7 80 1c 00 00 	add    r15,0x1c80
    2935:	48 c7 c0 00 00 00 00 	mov    rax,0x0
    293c:	41 57                	push   r15
    293e:	c3                   	ret
    293f:	3c 02                	cmp    al,0x2
    2941:	75 11                	jne    2954 <__cxa_finalize@plt+0x18a4>
    2943:	49 81 c7 03 03 00 00 	add    r15,0x303
    294a:	48 c7 c0 00 00 00 00 	mov    rax,0x0
    2951:	41 57                	push   r15
    2953:	c3                   	ret
    2954:	3c 03                	cmp    al,0x3
    2956:	75 11                	jne    2969 <__cxa_finalize@plt+0x18b9>
    2958:	49 81 c7 c2 06 00 00 	add    r15,0x6c2
    295f:	48 c7 c0 01 00 00 00 	mov    rax,0x1
    2966:	41 57                	push   r15
    2968:	c3                   	ret
    2969:	e9 c8 06 00 00       	jmp    3036 <__cxa_finalize@plt+0x1f86>
    296e:	e8 36 e8 ff ff       	call   11a9 <__cxa_finalize@plt+0xf9>
    2973:	0f b6 05 97 36 00 00 	movzx  eax,BYTE PTR [rip+0x3697]        # 6011 <__cxa_finalize@plt+0x4f61>
    297a:	4d 89 ef             	mov    r15,r13
    297d:	4c 03 3c 24          	add    r15,QWORD PTR [rsp]
    2981:	3c 00                	cmp    al,0x0
    2983:	75 11                	jne    2996 <__cxa_finalize@plt+0x18e6>
    2985:	49 81 c7 00 0b 00 00 	add    r15,0xb00
    298c:	48 c7 c0 00 00 00 00 	mov    rax,0x0
    2993:	41 57                	push   r15
    2995:	c3                   	ret
    2996:	3c 01                	cmp    al,0x1
    2998:	75 11                	jne    29ab <__cxa_finalize@plt+0x18fb>
    299a:	49 81 c7 24 16 00 00 	add    r15,0x1624
    29a1:	48 c7 c0 00 00 00 00 	mov    rax,0x0
    29a8:	41 57                	push   r15
    29aa:	c3                   	ret
    29ab:	3c 02                	cmp    al,0x2
    29ad:	75 11                	jne    29c0 <__cxa_finalize@plt+0x1910>
    29af:	49 81 c7 56 06 00 00 	add    r15,0x656
    29b6:	48 c7 c0 00 00 00 00 	mov    rax,0x0
    29bd:	41 57                	push   r15
    29bf:	c3                   	ret
    29c0:	3c 03                	cmp    al,0x3
    29c2:	75 11                	jne    29d5 <__cxa_finalize@plt+0x1925>
    29c4:	49 81 c7 80 1c 00 00 	add    r15,0x1c80
    29cb:	48 c7 c0 01 00 00 00 	mov    rax,0x1
    29d2:	41 57                	push   r15
    29d4:	c3                   	ret
    29d5:	e9 5c 06 00 00       	jmp    3036 <__cxa_finalize@plt+0x1f86>
    29da:	e8 ca e7 ff ff       	call   11a9 <__cxa_finalize@plt+0xf9>
    29df:	0f b6 05 2b 36 00 00 	movzx  eax,BYTE PTR [rip+0x362b]        # 6011 <__cxa_finalize@plt+0x4f61>
    29e6:	4d 89 ef             	mov    r15,r13
    29e9:	4c 03 3c 24          	add    r15,QWORD PTR [rsp]
    29ed:	3c 00                	cmp    al,0x0
    29ef:	75 11                	jne    2a02 <__cxa_finalize@plt+0x1952>
    29f1:	49 81 c7 00 0b 00 00 	add    r15,0xb00
    29f8:	48 c7 c0 00 00 00 00 	mov    rax,0x0
    29ff:	41 57                	push   r15
    2a01:	c3                   	ret
    2a02:	3c 01                	cmp    al,0x1
    2a04:	75 11                	jne    2a17 <__cxa_finalize@plt+0x1967>
    2a06:	49 81 c7 bf 01 00 00 	add    r15,0x1bf
    2a0d:	48 c7 c0 00 00 00 00 	mov    rax,0x0
    2a14:	41 57                	push   r15
    2a16:	c3                   	ret
    2a17:	3c 02                	cmp    al,0x2
    2a19:	75 11                	jne    2a2c <__cxa_finalize@plt+0x197c>
    2a1b:	49 81 c7 56 06 00 00 	add    r15,0x656
    2a22:	48 c7 c0 00 00 00 00 	mov    rax,0x0
    2a29:	41 57                	push   r15
    2a2b:	c3                   	ret
    2a2c:	3c 03                	cmp    al,0x3
    2a2e:	75 11                	jne    2a41 <__cxa_finalize@plt+0x1991>
    2a30:	49 81 c7 b8 15 00 00 	add    r15,0x15b8
    2a37:	48 c7 c0 01 00 00 00 	mov    rax,0x1
    2a3e:	41 57                	push   r15
    2a40:	c3                   	ret
    2a41:	e9 f0 05 00 00       	jmp    3036 <__cxa_finalize@plt+0x1f86>
    2a46:	e8 5e e7 ff ff       	call   11a9 <__cxa_finalize@plt+0xf9>
    2a4b:	0f b6 05 bf 35 00 00 	movzx  eax,BYTE PTR [rip+0x35bf]        # 6011 <__cxa_finalize@plt+0x4f61>
    2a52:	4d 89 ef             	mov    r15,r13
    2a55:	4c 03 3c 24          	add    r15,QWORD PTR [rsp]
    2a59:	3c 00                	cmp    al,0x0
    2a5b:	75 11                	jne    2a6e <__cxa_finalize@plt+0x19be>
    2a5d:	49 81 c7 80 1c 00 00 	add    r15,0x1c80
    2a64:	48 c7 c0 01 00 00 00 	mov    rax,0x1
    2a6b:	41 57                	push   r15
    2a6d:	c3                   	ret
    2a6e:	3c 01                	cmp    al,0x1
    2a70:	75 11                	jne    2a83 <__cxa_finalize@plt+0x19d3>
    2a72:	49 81 c7 80 1c 00 00 	add    r15,0x1c80
    2a79:	48 c7 c0 00 00 00 00 	mov    rax,0x0
    2a80:	41 57                	push   r15
    2a82:	c3                   	ret
    2a83:	3c 02                	cmp    al,0x2
    2a85:	75 11                	jne    2a98 <__cxa_finalize@plt+0x19e8>
    2a87:	49 81 c7 80 1c 00 00 	add    r15,0x1c80
    2a8e:	48 c7 c0 00 00 00 00 	mov    rax,0x0
    2a95:	41 57                	push   r15
    2a97:	c3                   	ret
    2a98:	3c 03                	cmp    al,0x3
    2a9a:	75 11                	jne    2aad <__cxa_finalize@plt+0x19fd>
    2a9c:	49 81 c7 e0 14 00 00 	add    r15,0x14e0
    2aa3:	48 c7 c0 00 00 00 00 	mov    rax,0x0
    2aaa:	41 57                	push   r15
    2aac:	c3                   	ret
    2aad:	e9 84 05 00 00       	jmp    3036 <__cxa_finalize@plt+0x1f86>
    2ab2:	e8 f2 e6 ff ff       	call   11a9 <__cxa_finalize@plt+0xf9>
    2ab7:	0f b6 05 53 35 00 00 	movzx  eax,BYTE PTR [rip+0x3553]        # 6011 <__cxa_finalize@plt+0x4f61>
    2abe:	4d 89 ef             	mov    r15,r13
    2ac1:	4c 03 3c 24          	add    r15,QWORD PTR [rsp]
    2ac5:	3c 00                	cmp    al,0x0
    2ac7:	75 11                	jne    2ada <__cxa_finalize@plt+0x1a2a>
    2ac9:	49 81 c7 80 1c 00 00 	add    r15,0x1c80
    2ad0:	48 c7 c0 00 00 00 00 	mov    rax,0x0
    2ad7:	41 57                	push   r15
    2ad9:	c3                   	ret
    2ada:	3c 01                	cmp    al,0x1
    2adc:	75 11                	jne    2aef <__cxa_finalize@plt+0x1a3f>
    2ade:	49 81 c7 80 1c 00 00 	add    r15,0x1c80
    2ae5:	48 c7 c0 00 00 00 00 	mov    rax,0x0
    2aec:	41 57                	push   r15
    2aee:	c3                   	ret
    2aef:	3c 02                	cmp    al,0x2
    2af1:	75 11                	jne    2b04 <__cxa_finalize@plt+0x1a54>
    2af3:	49 81 c7 b3 0f 00 00 	add    r15,0xfb3
    2afa:	48 c7 c0 01 00 00 00 	mov    rax,0x1
    2b01:	41 57                	push   r15
    2b03:	c3                   	ret
    2b04:	3c 03                	cmp    al,0x3
    2b06:	75 11                	jne    2b19 <__cxa_finalize@plt+0x1a69>
    2b08:	49 81 c7 80 1c 00 00 	add    r15,0x1c80
    2b0f:	48 c7 c0 00 00 00 00 	mov    rax,0x0
    2b16:	41 57                	push   r15
    2b18:	c3                   	ret
    2b19:	e9 18 05 00 00       	jmp    3036 <__cxa_finalize@plt+0x1f86>
    2b1e:	e8 86 e6 ff ff       	call   11a9 <__cxa_finalize@plt+0xf9>
    2b23:	0f b6 05 e7 34 00 00 	movzx  eax,BYTE PTR [rip+0x34e7]        # 6011 <__cxa_finalize@plt+0x4f61>
    2b2a:	4d 89 ef             	mov    r15,r13
    2b2d:	4c 03 3c 24          	add    r15,QWORD PTR [rsp]
    2b31:	3c 00                	cmp    al,0x0
    2b33:	75 11                	jne    2b46 <__cxa_finalize@plt+0x1a96>
    2b35:	49 81 c7 80 1c 00 00 	add    r15,0x1c80
    2b3c:	48 c7 c0 00 00 00 00 	mov    rax,0x0
    2b43:	41 57                	push   r15
    2b45:	c3                   	ret
    2b46:	3c 01                	cmp    al,0x1
    2b48:	75 11                	jne    2b5b <__cxa_finalize@plt+0x1aab>
    2b4a:	49 81 c7 80 1c 00 00 	add    r15,0x1c80
    2b51:	48 c7 c0 00 00 00 00 	mov    rax,0x0
    2b58:	41 57                	push   r15
    2b5a:	c3                   	ret
    2b5b:	3c 02                	cmp    al,0x2
    2b5d:	75 11                	jne    2b70 <__cxa_finalize@plt+0x1ac0>
    2b5f:	49 81 c7 80 1c 00 00 	add    r15,0x1c80
    2b66:	48 c7 c0 01 00 00 00 	mov    rax,0x1
    2b6d:	41 57                	push   r15
    2b6f:	c3                   	ret
    2b70:	3c 03                	cmp    al,0x3
    2b72:	75 11                	jne    2b85 <__cxa_finalize@plt+0x1ad5>
    2b74:	49 81 c7 80 1c 00 00 	add    r15,0x1c80
    2b7b:	48 c7 c0 00 00 00 00 	mov    rax,0x0
    2b82:	41 57                	push   r15
    2b84:	c3                   	ret
    2b85:	e9 ac 04 00 00       	jmp    3036 <__cxa_finalize@plt+0x1f86>
    2b8a:	4d 89 ef             	mov    r15,r13
    2b8d:	49 81 c7 16 06 00 00 	add    r15,0x616
    2b94:	49 83 c7 03          	add    r15,0x3
    2b98:	45 8b 37             	mov    r14d,DWORD PTR [r15]
    2b9b:	41 81 fe d4 17 00 00 	cmp    r14d,0x17d4
    2ba2:	75 75                	jne    2c19 <__cxa_finalize@plt+0x1b69>
    2ba4:	4d 89 ef             	mov    r15,r13
    2ba7:	49 81 c7 16 06 00 00 	add    r15,0x616
    2bae:	49 83 c7 03          	add    r15,0x3
    2bb2:	41 be 80 1c 00 00    	mov    r14d,0x1c80
    2bb8:	45 89 37             	mov    DWORD PTR [r15],r14d
    2bbb:	4d 89 ef             	mov    r15,r13
    2bbe:	49 81 c7 ea 0a 00 00 	add    r15,0xaea
    2bc5:	49 83 c7 03          	add    r15,0x3
    2bc9:	41 be 74 14 00 00    	mov    r14d,0x1474
    2bcf:	45 89 37             	mov    DWORD PTR [r15],r14d
    2bd2:	4d 89 ef             	mov    r15,r13
    2bd5:	49 81 c7 ed 18 00 00 	add    r15,0x18ed
    2bdc:	49 83 c7 03          	add    r15,0x3
    2be0:	41 be 80 1c 00 00    	mov    r14d,0x1c80
    2be6:	45 89 37             	mov    DWORD PTR [r15],r14d
    2be9:	4d 89 ef             	mov    r15,r13
    2bec:	49 81 c7 1c 09 00 00 	add    r15,0x91c
    2bf3:	49 83 c7 03          	add    r15,0x3
    2bf7:	41 be d4 17 00 00    	mov    r14d,0x17d4
    2bfd:	45 89 37             	mov    DWORD PTR [r15],r14d
    2c00:	4d 89 ef             	mov    r15,r13
    2c03:	49 81 c7 2c 19 00 00 	add    r15,0x192c
    2c0a:	49 83 c7 03          	add    r15,0x3
    2c0e:	41 be 2b 02 00 00    	mov    r14d,0x22b
    2c14:	45 89 37             	mov    DWORD PTR [r15],r14d
    2c17:	eb 73                	jmp    2c8c <__cxa_finalize@plt+0x1bdc>
    2c19:	4d 89 ef             	mov    r15,r13
    2c1c:	49 81 c7 16 06 00 00 	add    r15,0x616
    2c23:	49 83 c7 03          	add    r15,0x3
    2c27:	41 be d4 17 00 00    	mov    r14d,0x17d4
    2c2d:	45 89 37             	mov    DWORD PTR [r15],r14d
    2c30:	4d 89 ef             	mov    r15,r13
    2c33:	49 81 c7 ea 0a 00 00 	add    r15,0xaea
    2c3a:	49 83 c7 03          	add    r15,0x3
    2c3e:	41 be 80 1c 00 00    	mov    r14d,0x1c80
    2c44:	45 89 37             	mov    DWORD PTR [r15],r14d
    2c47:	4d 89 ef             	mov    r15,r13
    2c4a:	49 81 c7 ed 18 00 00 	add    r15,0x18ed
    2c51:	49 83 c7 03          	add    r15,0x3
    2c55:	41 be b8 15 00 00    	mov    r14d,0x15b8
    2c5b:	45 89 37             	mov    DWORD PTR [r15],r14d
    2c5e:	4d 89 ef             	mov    r15,r13
    2c61:	49 81 c7 1c 09 00 00 	add    r15,0x91c
    2c68:	49 83 c7 03          	add    r15,0x3
    2c6c:	41 be 80 1c 00 00    	mov    r14d,0x1c80
    2c72:	45 89 37             	mov    DWORD PTR [r15],r14d
    2c75:	4d 89 ef             	mov    r15,r13
    2c78:	49 81 c7 2c 19 00 00 	add    r15,0x192c
    2c7f:	49 83 c7 03          	add    r15,0x3
    2c83:	41 be 80 1c 00 00    	mov    r14d,0x1c80
    2c89:	45 89 37             	mov    DWORD PTR [r15],r14d
    2c8c:	e8 18 e5 ff ff       	call   11a9 <__cxa_finalize@plt+0xf9>
    2c91:	0f b6 05 79 33 00 00 	movzx  eax,BYTE PTR [rip+0x3379]        # 6011 <__cxa_finalize@plt+0x4f61>
    2c98:	4d 89 ef             	mov    r15,r13
    2c9b:	4c 03 3c 24          	add    r15,QWORD PTR [rsp]
    2c9f:	3c 00                	cmp    al,0x0
    2ca1:	75 11                	jne    2cb4 <__cxa_finalize@plt+0x1c04>
    2ca3:	49 81 c7 b8 15 00 00 	add    r15,0x15b8
    2caa:	48 c7 c0 00 00 00 00 	mov    rax,0x0
    2cb1:	41 57                	push   r15
    2cb3:	c3                   	ret
    2cb4:	3c 01                	cmp    al,0x1
    2cb6:	75 11                	jne    2cc9 <__cxa_finalize@plt+0x1c19>
    2cb8:	49 81 c7 80 1c 00 00 	add    r15,0x1c80
    2cbf:	48 c7 c0 00 00 00 00 	mov    rax,0x0
    2cc6:	41 57                	push   r15
    2cc8:	c3                   	ret
    2cc9:	3c 02                	cmp    al,0x2
    2ccb:	75 11                	jne    2cde <__cxa_finalize@plt+0x1c2e>
    2ccd:	49 81 c7 80 1c 00 00 	add    r15,0x1c80
    2cd4:	48 c7 c0 00 00 00 00 	mov    rax,0x0
    2cdb:	41 57                	push   r15
    2cdd:	c3                   	ret
    2cde:	3c 03                	cmp    al,0x3
    2ce0:	75 11                	jne    2cf3 <__cxa_finalize@plt+0x1c43>
    2ce2:	49 81 c7 80 1c 00 00 	add    r15,0x1c80
    2ce9:	48 c7 c0 01 00 00 00 	mov    rax,0x1
    2cf0:	41 57                	push   r15
    2cf2:	c3                   	ret
    2cf3:	e9 3e 03 00 00       	jmp    3036 <__cxa_finalize@plt+0x1f86>
    2cf8:	4d 89 ef             	mov    r15,r13
    2cfb:	49 81 c7 b0 08 00 00 	add    r15,0x8b0
    2d02:	49 83 c7 03          	add    r15,0x3
    2d06:	45 8b 37             	mov    r14d,DWORD PTR [r15]
    2d09:	41 81 fe 97 02 00 00 	cmp    r14d,0x297
    2d10:	0f 85 5e 01 00 00    	jne    2e74 <__cxa_finalize@plt+0x1dc4>
    2d16:	4d 89 ef             	mov    r15,r13
    2d19:	49 81 c7 b0 08 00 00 	add    r15,0x8b0
    2d20:	49 83 c7 03          	add    r15,0x3
    2d24:	41 be 80 1c 00 00    	mov    r14d,0x1c80
    2d2a:	45 89 37             	mov    DWORD PTR [r15],r14d
    2d2d:	4d 89 ef             	mov    r15,r13
    2d30:	49 81 c7 5e 0f 00 00 	add    r15,0xf5e
    2d37:	49 83 c7 03          	add    r15,0x3
    2d3b:	41 be 03 03 00 00    	mov    r14d,0x303
    2d41:	45 89 37             	mov    DWORD PTR [r15],r14d
    2d44:	4d 89 ef             	mov    r15,r13
    2d47:	49 81 c7 c3 02 00 00 	add    r15,0x2c3
    2d4e:	49 83 c7 03          	add    r15,0x3
    2d52:	41 be 80 1c 00 00    	mov    r14d,0x1c80
    2d58:	45 89 37             	mov    DWORD PTR [r15],r14d
    2d5b:	4d 89 ef             	mov    r15,r13
    2d5e:	49 81 c7 59 03 00 00 	add    r15,0x359
    2d65:	49 83 c7 03          	add    r15,0x3
    2d69:	41 be 47 0f 00 00    	mov    r14d,0xf47
    2d6f:	45 89 37             	mov    DWORD PTR [r15],r14d
    2d72:	4d 89 ef             	mov    r15,r13
    2d75:	49 81 c7 52 17 00 00 	add    r15,0x1752
    2d7c:	49 83 c7 03          	add    r15,0x3
    2d80:	41 be 4c 15 00 00    	mov    r14d,0x154c
    2d86:	45 89 37             	mov    DWORD PTR [r15],r14d
    2d89:	4d 89 ef             	mov    r15,r13
    2d8c:	49 81 c7 fe 00 00 00 	add    r15,0xfe
    2d93:	49 83 c7 03          	add    r15,0x3
    2d97:	41 be 80 1c 00 00    	mov    r14d,0x1c80
    2d9d:	45 89 37             	mov    DWORD PTR [r15],r14d
    2da0:	4d 89 ef             	mov    r15,r13
    2da3:	49 81 c7 a0 14 00 00 	add    r15,0x14a0
    2daa:	49 83 c7 03          	add    r15,0x3
    2dae:	41 be 68 17 00 00    	mov    r14d,0x1768
    2db4:	45 89 37             	mov    DWORD PTR [r15],r14d
    2db7:	4d 89 ef             	mov    r15,r13
    2dba:	49 81 c7 b0 0e 00 00 	add    r15,0xeb0
    2dc1:	49 83 c7 03          	add    r15,0x3
    2dc5:	41 be 80 1c 00 00    	mov    r14d,0x1c80
    2dcb:	45 89 37             	mov    DWORD PTR [r15],r14d
    2dce:	4d 89 ef             	mov    r15,r13
    2dd1:	49 81 c7 bc 16 00 00 	add    r15,0x16bc
    2dd8:	49 83 c7 03          	add    r15,0x3
    2ddc:	41 be 1f 10 00 00    	mov    r14d,0x101f
    2de2:	45 89 37             	mov    DWORD PTR [r15],r14d
    2de5:	4d 89 ef             	mov    r15,r13
    2de8:	49 81 c7 9b 08 00 00 	add    r15,0x89b
    2def:	49 83 c7 03          	add    r15,0x3
    2df3:	41 be 80 1c 00 00    	mov    r14d,0x1c80
    2df9:	45 89 37             	mov    DWORD PTR [r15],r14d
    2dfc:	4d 89 ef             	mov    r15,r13
    2dff:	49 81 c7 63 15 00 00 	add    r15,0x1563
    2e06:	49 83 c7 03          	add    r15,0x3
    2e0a:	41 be fc 16 00 00    	mov    r14d,0x16fc
    2e10:	45 89 37             	mov    DWORD PTR [r15],r14d
    2e13:	4d 89 ef             	mov    r15,r13
    2e16:	49 81 c7 49 14 00 00 	add    r15,0x1449
    2e1d:	49 83 c7 03          	add    r15,0x3
    2e21:	41 be 90 16 00 00    	mov    r14d,0x1690
    2e27:	45 89 37             	mov    DWORD PTR [r15],r14d
    2e2a:	4d 89 ef             	mov    r15,r13
    2e2d:	49 81 c7 3d 01 00 00 	add    r15,0x13d
    2e34:	49 83 c7 03          	add    r15,0x3
    2e38:	41 be 97 02 00 00    	mov    r14d,0x297
    2e3e:	45 89 37             	mov    DWORD PTR [r15],r14d
    2e41:	4d 89 ef             	mov    r15,r13
    2e44:	49 81 c7 5e 14 00 00 	add    r15,0x145e
    2e4b:	49 83 c7 03          	add    r15,0x3
    2e4f:	41 be 80 1c 00 00    	mov    r14d,0x1c80
    2e55:	45 89 37             	mov    DWORD PTR [r15],r14d
    2e58:	4d 89 ef             	mov    r15,r13
    2e5b:	49 81 c7 ae 02 00 00 	add    r15,0x2ae
    2e62:	49 83 c7 03          	add    r15,0x3
    2e66:	41 be e7 00 00 00    	mov    r14d,0xe7
    2e6c:	45 89 37             	mov    DWORD PTR [r15],r14d
    2e6f:	e9 59 01 00 00       	jmp    2fcd <__cxa_finalize@plt+0x1f1d>
    2e74:	4d 89 ef             	mov    r15,r13
    2e77:	49 81 c7 b0 08 00 00 	add    r15,0x8b0
    2e7e:	49 83 c7 03          	add    r15,0x3
    2e82:	41 be 97 02 00 00    	mov    r14d,0x297
    2e88:	45 89 37             	mov    DWORD PTR [r15],r14d
    2e8b:	4d 89 ef             	mov    r15,r13
    2e8e:	49 81 c7 5e 0f 00 00 	add    r15,0xf5e
    2e95:	49 83 c7 03          	add    r15,0x3
    2e99:	41 be 80 1c 00 00    	mov    r14d,0x1c80
    2e9f:	45 89 37             	mov    DWORD PTR [r15],r14d
    2ea2:	4d 89 ef             	mov    r15,r13
    2ea5:	49 81 c7 c3 02 00 00 	add    r15,0x2c3
    2eac:	49 83 c7 03          	add    r15,0x3
    2eb0:	41 be 6f 08 00 00    	mov    r14d,0x86f
    2eb6:	45 89 37             	mov    DWORD PTR [r15],r14d
    2eb9:	4d 89 ef             	mov    r15,r13
    2ebc:	49 81 c7 59 03 00 00 	add    r15,0x359
    2ec3:	49 83 c7 03          	add    r15,0x3
    2ec7:	41 be 80 1c 00 00    	mov    r14d,0x1c80
    2ecd:	45 89 37             	mov    DWORD PTR [r15],r14d
    2ed0:	4d 89 ef             	mov    r15,r13
    2ed3:	49 81 c7 52 17 00 00 	add    r15,0x1752
    2eda:	49 83 c7 03          	add    r15,0x3
    2ede:	41 be 80 1c 00 00    	mov    r14d,0x1c80
    2ee4:	45 89 37             	mov    DWORD PTR [r15],r14d
    2ee7:	4d 89 ef             	mov    r15,r13
    2eea:	49 81 c7 fe 00 00 00 	add    r15,0xfe
    2ef1:	49 83 c7 03          	add    r15,0x3
    2ef5:	41 be 1f 10 00 00    	mov    r14d,0x101f
    2efb:	45 89 37             	mov    DWORD PTR [r15],r14d
    2efe:	4d 89 ef             	mov    r15,r13
    2f01:	49 81 c7 a0 14 00 00 	add    r15,0x14a0
    2f08:	49 83 c7 03          	add    r15,0x3
    2f0c:	41 be 80 1c 00 00    	mov    r14d,0x1c80
    2f12:	45 89 37             	mov    DWORD PTR [r15],r14d
    2f15:	4d 89 ef             	mov    r15,r13
    2f18:	49 81 c7 b0 0e 00 00 	add    r15,0xeb0
    2f1f:	49 83 c7 03          	add    r15,0x3
    2f23:	41 be 6f 08 00 00    	mov    r14d,0x86f
    2f29:	45 89 37             	mov    DWORD PTR [r15],r14d
    2f2c:	4d 89 ef             	mov    r15,r13
    2f2f:	49 81 c7 bc 16 00 00 	add    r15,0x16bc
    2f36:	49 83 c7 03          	add    r15,0x3
    2f3a:	41 be 80 1c 00 00    	mov    r14d,0x1c80
    2f40:	45 89 37             	mov    DWORD PTR [r15],r14d
    2f43:	4d 89 ef             	mov    r15,r13
    2f46:	49 81 c7 9b 08 00 00 	add    r15,0x89b
    2f4d:	49 83 c7 03          	add    r15,0x3
    2f51:	41 be 6c 0b 00 00    	mov    r14d,0xb6c
    2f57:	45 89 37             	mov    DWORD PTR [r15],r14d
    2f5a:	4d 89 ef             	mov    r15,r13
    2f5d:	49 81 c7 63 15 00 00 	add    r15,0x1563
    2f64:	49 83 c7 03          	add    r15,0x3
    2f68:	41 be 80 1c 00 00    	mov    r14d,0x1c80
    2f6e:	45 89 37             	mov    DWORD PTR [r15],r14d
    2f71:	4d 89 ef             	mov    r15,r13
    2f74:	49 81 c7 49 14 00 00 	add    r15,0x1449
    2f7b:	49 83 c7 03          	add    r15,0x3
    2f7f:	41 be 80 1c 00 00    	mov    r14d,0x1c80
    2f85:	45 89 37             	mov    DWORD PTR [r15],r14d
    2f88:	4d 89 ef             	mov    r15,r13
    2f8b:	49 81 c7 3d 01 00 00 	add    r15,0x13d
    2f92:	49 83 c7 03          	add    r15,0x3
    2f96:	41 be 80 1c 00 00    	mov    r14d,0x1c80
    2f9c:	45 89 37             	mov    DWORD PTR [r15],r14d
    2f9f:	4d 89 ef             	mov    r15,r13
    2fa2:	49 81 c7 5e 14 00 00 	add    r15,0x145e
    2fa9:	49 83 c7 03          	add    r15,0x3
    2fad:	41 be e7 00 00 00    	mov    r14d,0xe7
    2fb3:	45 89 37             	mov    DWORD PTR [r15],r14d
    2fb6:	4d 89 ef             	mov    r15,r13
    2fb9:	49 81 c7 ae 02 00 00 	add    r15,0x2ae
    2fc0:	49 83 c7 03          	add    r15,0x3
    2fc4:	41 be 80 1c 00 00    	mov    r14d,0x1c80
    2fca:	45 89 37             	mov    DWORD PTR [r15],r14d
    2fcd:	e8 d7 e1 ff ff       	call   11a9 <__cxa_finalize@plt+0xf9>
    2fd2:	0f b6 05 38 30 00 00 	movzx  eax,BYTE PTR [rip+0x3038]        # 6011 <__cxa_finalize@plt+0x4f61>
    2fd9:	4d 89 ef             	mov    r15,r13
    2fdc:	4c 03 3c 24          	add    r15,QWORD PTR [rsp]
    2fe0:	3c 00                	cmp    al,0x0
    2fe2:	75 11                	jne    2ff5 <__cxa_finalize@plt+0x1f45>
    2fe4:	49 81 c7 e0 14 00 00 	add    r15,0x14e0
    2feb:	48 c7 c0 00 00 00 00 	mov    rax,0x0
    2ff2:	41 57                	push   r15
    2ff4:	c3                   	ret
    2ff5:	3c 01                	cmp    al,0x1
    2ff7:	75 11                	jne    300a <__cxa_finalize@plt+0x1f5a>
    2ff9:	49 81 c7 80 1c 00 00 	add    r15,0x1c80
    3000:	48 c7 c0 01 00 00 00 	mov    rax,0x1
    3007:	41 57                	push   r15
    3009:	c3                   	ret
    300a:	3c 02                	cmp    al,0x2
    300c:	75 11                	jne    301f <__cxa_finalize@plt+0x1f6f>
    300e:	49 81 c7 80 1c 00 00 	add    r15,0x1c80
    3015:	48 c7 c0 00 00 00 00 	mov    rax,0x0
    301c:	41 57                	push   r15
    301e:	c3                   	ret
    301f:	3c 03                	cmp    al,0x3
    3021:	75 11                	jne    3034 <__cxa_finalize@plt+0x1f84>
    3023:	49 81 c7 80 1c 00 00 	add    r15,0x1c80
    302a:	48 c7 c0 00 00 00 00 	mov    rax,0x0
    3031:	41 57                	push   r15
    3033:	c3                   	ret
    3034:	eb 00                	jmp    3036 <__cxa_finalize@plt+0x1f86>
    3036:	41 5f                	pop    r15
    3038:	58                   	pop    rax
    3039:	c9                   	leave
    303a:	c3                   	ret

Disassembly of section .fini:

000000000000303c <.fini>:
    303c:	f3 0f 1e fa          	endbr64
    3040:	48 83 ec 08          	sub    rsp,0x8
    3044:	48 83 c4 08          	add    rsp,0x8
    3048:	c3                   	ret
